ccopy_reg
_reconstructor
p1
(cgensim.corpora.dictionary
Dictionary
p2
c__builtin__
object
p3
NtRp4
(dp5
S'num_docs'
p6
I60
sS'token2id'
p7
(dp8
Vlimited
p9
I1274
sVjog/walk
p10
I2526
sVsimilarity
p11
I170
sVcomparatively
p12
I2737
sVdynamic
p13
I2958
sVcolleges
p14
I2478
sVfour
p15
I480
sVfacilities
p16
I2502
sVentropy
p17
I447
sVcontroversial
p18
I3526
sVmctaggart
p19
I3874
sVconsists
p20
I3663
sVdist
p21
I2966
sVconsider
p22
I2171
sVrelationships
p23
I3805
sVwhose
p24
I1982
sVcoordination]
p25
I2181
sVergs
p26
I2666
sVcontained
p27
I2175
sVunanswered
p28
I2850
sVsubcomponents
p29
I2795
sVmistakes
p30
I121
sVneighbours
p31
I1160
sVbike
p32
I2468
sVunder
p33
I1715
sVteaching
p34
I775
sVontological
p35
I3875
sVergo
p36
I2500
sVworth
p37
I2452
sValternating
p38
I2127
sV@
I2456
sVemerged
p39
I858
sVhuman-robot
p40
I2269
sVrise
p41
I2387
sVmisunderstanding
p42
I1568
sVfantastically
p43
I2504
sVevery
p44
I453
sVaffect
p45
I2120
sVmonkeys
p46
I592
sVvast
p47
I1727
sVdiscovers
p48
I3274
sVdisturb
p49
I1900
sVinternally
p50
I3640
sVfurrowed
p51
I63
sVskills
p52
I1048
sVref
p53
I3019
sVturn-wise
p54
I2433
sVsolution
p55
I1812
sVmind-switching
p56
I3893
sVred
p57
I2378
sVguiding
p58
I2261
sVcholesterol
p59
I2651
sVmarkov
p60
I2310
sVunifying
p61
I1720
sVbuild-up
p62
I3123
sVpragmatic
p63
I1341
sVdisciplines
p64
I419
sVconsistent
p65
I1428
sVguidelines
p66
I2509
sVdirect
p67
I3272
sVhorn
p68
I1257
sVnail
p69
I126
sVlikely
p70
I277
sVexchangeable
p71
I2217
sVrigorous
p72
I3295
sVestimated
p73
I1771
sVexpressive
p74
I861
sVmachines
p75
I2036
sVcooperatively
p76
I2745
sVeven
p77
I266
sVestablished
p78
I56
sVerrors
p79
I3596
sV[perhaps
p80
I2095
sVcooking
p81
I3363
sVreasoning
p82
I1638
sVlights
p83
I1273
sVdeficits
p84
I3764
sVcauses
p85
I2915
sVabove
p86
I1356
sVnew
p87
I608
sVever
p88
I2015
sVdiscrimination
p89
I3593
sVinternships
p90
I1000
sVtutorials
p91
I3880
sVunmotivated
p92
I2437
sVdeemed
p93
I2189
sVsimultaneously
p94
I742
sVdisobeying
p95
I2663
sVinterns
p96
I998
sVherb
p97
I1518
sVmen
p98
I2542
sVresidual
p99
I2897
sVhere
p100
I82
sVreported
p101
I1174
sVasymmetry
p102
I2142
sVlera
p103
I551
sVwellwood
p104
I1823
sVactive
p105
I1364
sVpath
p106
I141
sVinterpret
p107
I2294
sVproperty
p108
I1798
sVsynchronic
p109
I2418
sVitems
p110
I99
sVstudy
p111
I758
sVchanged
p112
I1940
sVignoring
p113
I513
sVcredit
p114
I3366
sVstressed
p115
I2411
sVcalculators
p116
I1125
sVsuitable
p117
I763
sVchanges
p118
I375
sVmutual
p119
I2325
sVfantastic
p120
I2503
sVequivalence
p121
I2214
sVsecure
p122
I1179
sVclassification
p123
I1841
sV[argue
p124
I3418
sVreagan
p125
I2376
sVerected
p126
I1140
sVpsychological
p127
I689
sVvisible
p128
I3466
sVmodulated
p129
I590
sVmoral
p130
I3492
sVthursday
p131
I1056
sVcounts
p132
I397
sVtotal
p133
I2614
sVtopics
p134
I3808
sVunit
p135
I3506
sVreddy
p136
I3407
sVsarah
p137
I725
sVscaffolding
p138
I1660
sVwould
p139
I207
sVrohde
p140
I2640
sVmotivate
p141
I1573
sVarms
p142
I3030
sVinevitable
p143
I3639
sVphenomenological
p144
I2046
sVprogram
p145
I1034
sVcall
p146
I1404
sVtherefore
p147
I1708
sVmulti-turn
p148
I2323
sVantagonism
p149
I3825
sVtype
p150
I194
sVtell
p151
I776
sVdistinct
p152
I1331
sVseparated
p153
I732
sVinquiry
p154
I3484
sVsuccessful
p155
I1699
sVbrings
p156
I1402
sVaware
p157
I1937
sVbinary
p158
I2913
sVbackwards
p159
I1389
sVloose
p160
I3330
sVseparates
p161
I2394
sVhold
p162
I505
sVoutdated
p163
I3338
sVsquad
p164
I2591
sVx=b
p165
I3468
sVmust
p166
I598
sVme
p167
I577
sVziowen
p168
I846
sVmorally
p169
I593
sVword
p170
I833
sVroom
p171
I2389
sVrights
p172
I723
sVwork
p173
I307
sVunfortunately
p174
I2819
sVtheories
p175
I782
sVneurons
p176
I607
sVconcepts
p177
I391
sValready
p178
I1372
sVbrake
p179
I2870
sVelegantly
p180
I2204
sVmy
p181
I599
sVexample
p182
I58
sVcarmel
p183
I851
sVloosen
p184
I3446
sVtransition
p185
I2431
sVgive
p186
I272
sVdolphin
p187
I3276
sVorganized
p188
I3107
sVinvolve
p189
I1268
sVwant
p190
I823
sVtimes
p191
I792
sVabsolute
p192
I873
sVreinforcement
p193
I3563
sVend
p194
I444
sVhoc
p195
I1519
sVturn
p196
I2907
sVprovide
p197
I1293
sVverify
p198
I2444
sVtravel
p199
I1057
sVnaiive
p200
I2990
sVfeature
p201
I2241
sVmachine
p202
I567
sVhow
p203
I83
sVhot
p204
I1777
sVadjacent
p205
I2727
sVanswer
p206
I9
sVordinary
p207
I2715
sVmassive
p208
I2540
sVabstraction
p209
I1358
sVdescription
p210
I2003
sVlad
p211
I1553
sVturing
p212
I1111
sVearlier
p213
I433
sVlab
p214
I546
sVobjectively
p215
I3450
sVwrong
p216
I208
sVsynchrony
p217
I3504
sVparallel
p218
I1598
sVtypes
p219
I195
sVinactivity
p220
I517
sVaustere
p221
I1215
sVeffective
p222
I265
sVostensive-inferential
p223
I3896
sVschneider
p224
I290
sVchildhood
p225
I2827
sVhypotheses
p226
I509
sVlengths
p227
I2529
sVcomplexity
p228
I2166
sVinterior
p229
I2293
sVgreen
p230
I2886
sVenter
p231
I1138
sVobservability
p232
I2337
sVfirst
p233
I471
sVorder
p234
I624
sVorigin
p235
I1594
sVinterpretation
p236
I1541
sVfeedback
p237
I269
sVoffice
p238
I621
sVover
p239
I139
sVvary
p240
I2723
sVintuition
p241
I1920
sVlondon
p242
I1012
sVunfactored
p243
I2908
sVexperimentally
p244
I3855
sVresponsive
p245
I2863
sVstate-action
p246
I1692
sVnets
p247
I605
sVbefore
p248
I355
sVbeside
p249
I3311
sVdifference
p250
I2005
sVfit
p251
I1493
sVpersonal
p252
I2860
sVfix
p253
I2810
sVcoincedences
p254
I3760
sVncbc
p255
I2679
sVexpectations
p256
I2220
sVwriting
p257
I840
sVbetter
p258
I359
sVdistinguishing
p259
I48
sVcompelling
p260
I1752
sVdifferently
p261
I2007
sVpersist
p262
I2352
sVantecedent-consequence
p263
I2729
sVweeks
p264
I1067
sVnon-linguistic
p265
I1584
sVeasier
p266
I435
sVmaximal
p267
I1867
sVthen
p268
I184
sVthem
p269
I781
sVtorpids
p270
I2613
sVcombination
p271
I381
sVfixation
p272
I3048
sVconfuse
p273
I1755
sVsafe
p274
I2694
sVneurological
p275
I1578
sVscene
p276
I3080
sVbreak
p277
I3261
sVbaptization
p278
I3033
sVeffects
p279
I1854
sVthey
p280
I186
sVone
p281
I133
sVstructural
p282
I3253
sVrepresents
p283
I2383
sVgrammar
p284
I1511
sVturn-taking
p285
I193
sVreasonably
p286
I2786
sVl
I3445
sValexis
p287
I1737
sVneuroscientist
p288
I2039
sVconflict
p289
I2916
sVreasonable
p290
I1637
sVeach
p291
I432
sVsimplified
p292
I1683
sVsenghas
p293
I870
sVside
p294
I2790
sVassociative
p295
I3580
sVmean
p296
I1275
sVschemes
p297
I1043
sVsuccessively
p298
I2416
sVevolve
p299
I2017
sVseries
p300
I2396
sVfrequency
p301
I3396
sVprinciples
p302
I924
sVgenerative
p303
I2254
sVtaught
p304
I182
sVomnipresent
p305
I3704
sVdoug
p306
I428
sVameliorate
p307
I2869
sVprincipled
p308
I668
sVrecognizable
p309
I3294
sVsaturday
p310
I1176
sVcontend
p311
I3665
sVlarge
p312
I547
sVpropensities
p313
I3720
sVnetwork
p314
I3105
sVdriving
p315
I1237
sVrealtime
p316
I289
sVnitz
p317
I610
sVcrucial
p318
I972
sVcontent
p319
I215
sVre
p320
I697
sVunsofarcaptured
p321
I2438
sVadapt
p322
I847
sVgenerics
p323
I3185
sVreader
p324
I699
sVgot
p325
I3135
sVadaptation
p326
I3510
sVsize
p327
I2403
sVcreole
p328
I854
sVindependence
p329
I92
sVnon-occurrence
p330
I2935
sVcontextualism
p331
I3870
sVfoundation
p332
I3770
sVperception
p333
I2044
sVassociate
p334
I3652
sVgiven
p335
I488
sVfree
p336
I2021
sVyesterday
p337
I2082
sVsensory
p338
I731
sVgeneralization]
p339
I2251
sVformalize
p340
I3905
sVstruggle
p341
I2071
sVdetecting
p342
I3673
sVwanted
p343
I305
sVgameplay
p344
I2759
sVuniversally
p345
I2078
sVconform
p346
I2168
sVincorporates
p347
I1779
sVenormous
p348
I2014
sVstarts
p349
I2595
sVdiabetic
p350
I2661
sVmessages
p351
I581
sVdays
p352
I2484
sVcreates
p353
I3042
sVisn
p354
I535
sVincorporated
p355
I2280
sVunknown
p356
I3824
sVtied
p357
I3254
sVarrived
p358
I1936
sVonto
p359
I2341
sVpurpose
p360
I3498
sVseparable
p361
I2065
sVorganize
p362
I626
sVfeatures
p363
I466
sVgrade
p364
I492
sVcoding
p365
I3586
sVprimary
p366
I923
sVstaring
p367
I3118
sVhearing
p368
I498
sVbartlett
p369
I3218
sVphilosophical
p370
I1609
sVunspecified
p371
I2806
sVanother
p372
I245
sVwasn
p373
I3353
sVsober
p374
I3204
sVillustrate
p375
I1260
sVservice
p376
I1046
sVsimilarly
p377
I2400
sVtop
p378
I2428
sVapproximately
p379
I3651
sVheights
p380
I1776
sVneeded
p381
I1018
sVtoo
p382
I795
sVpercentage
p383
I1795
sVjohn
p384
I3142
sVdogs
p385
I3177
sVmurder
p386
I3553
sVapproach]
p387
I2134
sVtool
p388
I1710
sVrealization
p389
I1636
sVserve
p390
I1672
sVmedial
p391
I3103
sVtokens
p392
I191
sVtechnique
p393
I2609
sVpredictable
p394
I3380
sVcharacter
p395
I2956
sVbegins
p396
I2146
sVdistance
p397
I1132
sVtarget
p398
I2607
sVroles
p399
I1654
sVdivisible
p400
I1901
sVtree
p401
I2996
sVsecond
p402
I730
sVproject
p403
I679
sVmatter
p404
I1956
sVbigrams
p405
I1837
sVclasses
p406
I1997
sVsilly
p407
I3116
sVk
I2527
sVenables
p408
I977
sVsolely
p409
I1686
sVacquisition
p410
I1362
sVextracting
p411
I2754
sVfregean
p412
I3324
sVpaths
p413
I3842
sVusages
p414
I2439
sVfashion
p415
I463
sVsees
p416
I3081
sVran
p417
I3199
sVface
p418
I3597
sVdisambiguation
p419
I1234
sVmodern
p420
I3491
sVmind
p421
I584
sVspectrum
p422
I2794
sVtalking
p423
I773
sVmanner
p424
I112
sVseen
p425
I1665
sVseem
p426
I3644
sVmins
p427
I2545
sVtells
p428
I1191
sVcontents
p429
I3474
sVrelatively
p430
I151
sVforced
p431
I1772
sVstrength
p432
I2410
sVrealm
p433
I1296
sVmostly
p434
I1572
sVconcrete
p435
I1426
sVconvenient
p436
I3127
sV-
I309
sVcommunicative
p437
I1228
sVasymmetric
p438
I2141
sVchest
p439
I2650
sVsubjects
p440
I1187
sVchess
p441
I1410
sVforces
p442
I3395
sVseason
p443
I2576
sVtransmit
p444
I2961
sVisolates
p445
I3288
sVinanimate
p446
I3779
sVblue
p447
I2151
sVcontingency-based
p448
I1435
sVshallow
p449
I1884
sVthough
p450
I787
sVobject
p451
I616
sVdata]
p452
I2186
sVextending
p453
I2227
sVboltzmann
p454
I3583
sVregular
p455
I2380
sVmouth
p456
I124
sVinnovate
p457
I2972
sVletter
p458
I554
sVscripts
p459
I1178
sVcompeting
p460
I2479
sVcoin
p461
I3473
sVinconsistency
p462
I3637
sVsignal]]
p463
I3345
sVdon
p464
I427
sVobservation
p465
I2338
sVslider
p466
I3203
sVmedical
p467
I1015
sVlose
p468
I2535
sVm
I566
sVinferred
p469
I1530
sVyours
p470
I2453
sVcompetitors
p471
I3313
sVaccounted
p472
I1360
sVprinciple
p473
I1624
sVsun
p474
I3737
sVlevinson
p475
I3143
sVquantifying
p476
I1876
sVnotion
p477
I1793
sVincomplete
p478
I1525
sVkristen
p479
I1783
sVsaying
p480
I1804
sVinteretstign
p481
I3141
sVpattern-recognition
p482
I2042
sVre-derived
p483
I2815
sVlewis
p484
I1556
sVconverse
p485
I3430
sVprobe
p486
I672
sVpaetzel
p487
I1873
sVarbitrariness
p488
I3750
sVending
p489
I54
sVabstain
p490
I2108
sVsolutions
p491
I746
sVsundial
p492
I3301
sVearth
p493
I2706
sVexclusivity
p494
I3010
sVdecoding
p495
I3393
sVcausally-governed
p496
I3657
sVjudges
p497
I2767
sVtrade-off
p498
I3739
sVtier
p499
I3304
sVjust
p500
I101
sVnon-representationality
p501
I2332
sVimplementation
p502
I515
sVsituations
p503
I1685
sVexplain
p504
I222
sVhrs
p505
I2520
sVsalience
p506
I2392
sVspecify
p507
I1688
sVrich
p508
I930
sVchipotle
p509
I1412
sVtrueswell
p510
I3025
sVpersonality
p511
I2861
sVdo
p512
I49
sVstop
p513
I1184
sVperceive
p514
I2043
sVrepsect
p515
I3151
sVhopfield-style
p516
I3601
sVdespite
p517
I2195
sVreport
p518
I709
sVfrying
p519
I3373
sVdr
p520
I1133
sVsocieties
p521
I236
sVcleanly
p522
I1416
sVchild
p523
I3038
sVbar
p524
I3168
sVcovering
p525
I3667
sVnicely
p526
I1791
sVfields
p527
I468
sVrowing
p528
I2573
sV[coordinating
p529
I2085
sVmethod
p530
I2933
sVbag
p531
I2624
sVclean
p532
I3001
sVimplication
p533
I1262
sVsteak
p534
I1696
sVexplanations
p535
I1241
sVcircumstances
p536
I2872
sVrespond
p537
I2960
sVethical
p538
I978
sVdecides
p539
I3161
sVunifies
p540
I1317
sVreference
p541
I1880
sVw/
p542
I3119
sVsensitivity
p543
I3728
sVtesting
p544
I777
sVemergent
p545
I2012
sVobserved
p546
I2339
sVnaturalness
p547
I2328
sVdepends
p548
I1454
sVprojections
p549
I680
sVextensions
p550
I2228
sVfail
p551
I1488
sVbest
p552
I358
sVsubject
p553
I1186
sVpete
p554
I2554
sVone-shot
p555
I3864
sVsaid
p556
I1657
sVstate=c-
p557
I3462
sVincorrectly
p558
I3638
sVlots
p559
I563
sVrare
p560
I2893
sVaway
p561
I1836
sVmeta
p562
I3862
sVfreeze
p563
I2970
sVlisteners
p564
I3145
sVartificial
p565
I877
sVt-shaped
p566
I769
sVcatalogue
p567
I1406
sVunable
p568
I2434
sVcontexts/contingencies
p569
I2873
sVcooperation
p570
I217
sVsimplest
p571
I292
sVconceptual
p572
I392
sVpropagated
p573
I147
sVsorts
p574
I293
sVapproach
p575
I1381
sV//www
p576
I948
sVdiscovery
p577
I3227
sVpreserve
p578
I2813
sVwe
p579
I824
sVnever
p580
I3065
sVterms
p581
I940
sVstalemate
p582
I3384
sVextend
p583
I2225
sVnature
p584
I1279
sVpurity
p585
I1631
sVostension
p586
I1284
sVwm
p587
I3625
sVhowever
p588
I1259
sVape
p589
I3884
sVposit
p590
I3455
sVextent
p591
I1487
sVmodeling
p592
I588
sVcop
p593
I2875
sVessentially
p594
I3435
sVaccident
p595
I2646
sVsacrificing
p596
I2391
sVcow
p597
I3128
sVmet
p598
I3449
sVcountry
p599
I971
sVword-learning
p600
I3258
sVuncertainty
p601
I806
sVagainst
p602
I2955
sVparticipating
p603
I2683
sVplayers
p604
I2356
sVgames
p605
I2250
sVreceives
p606
I2057
sVlogic
p607
I2834
sVuni
p608
I1059
sVrequests
p609
I1882
sVargue
p610
I876
sVdisappears
p611
I3765
sVasked
p612
I1744
sVnegotiation
p613
I2329
sVsuggest
p614
I2603
sVpresumably
p615
I667
sVtone
p616
I1981
sVexplanatory
p617
I1485
sVrecursive
p618
I1800
sVheight
p619
I1775
sVrepresented
p620
I1644
sVritualization
p621
I3899
sVinitiative
p622
I524
sVcomprehension
p623
I25
sVapplicability
p624
I10
sVinterrelations
p625
I2032
sVwider
p626
I2449
sVtrust
p627
I3159
sVquine
p628
I3074
sVlewis-style
p629
I2303
sVpostman
p630
I3845
sVrepresentational
p631
I2382
sVbathroom
p632
I2730
sVmcclelland
p633
I3102
sVputs
p634
I3073
sVbasis
p635
I1392
sVthree
p636
I789
sVbeen
p637
I354
sVquickly
p638
I3113
sVuniversals
p639
I3881
sVextraction
p640
I3228
sVmuch
p641
I596
sVinterest
p642
I1539
sVbasic
p643
I1391
sVexpected
p644
I59
sVflexible
p645
I474
sVeeepox
p646
I2968
sVcorrection
p647
I1438
sVderives
p648
I3591
sVthrew
p649
I2074
sVwebsite
p650
I1065
sVentities
p651
I3817
sVgraphical
p652
I2257
sVindeterminacy
p653
I3688
sVdrugs
p654
I2664
sVsuppress
p655
I766
sVpickering
p656
I3713
sVworker
p657
I308
sVargument
p658
I2822
sVnile
p659
I3191
sVcoherent
p660
I380
sVsubstance
p661
I2719
sVenactive
p662
I2210
sVintakes
p663
I997
sVmodulates
p664
I3243
sVapplied
p665
I1380
sV[first
p666
I1349
sVtank
p667
I774
sVformalization
p668
I1249
sVpropositions
p669
I3876
sVcontingencies
p670
I1433
sVdisambiguatable
p671
I2877
sVerg/walk/jog
p672
I2499
sVaim
p673
I2122
sVnear
p674
I603
sVsuppose
p675
I3569
sVmulti-hierarchical
p676
I3190
sVleaves
p677
I2769
sVapplies
p678
I2132
sVaid
p679
I951
sVpouget
p680
I3614
sVquote]
p681
I1633
sVinspired
p682
I2288
sVprocedure
p683
I1628
sVremembering
p684
I1979
sVpyramid
p685
I2563
sVthursdays
p686
I790
sVnaming
p687
I3015
sVtoolkit
p688
I299
sVii
p689
I2672
sVneed
p690
I914
sVgrammars
p691
I1512
sVexperts
p692
I459
sVanticipating
p693
I2852
sVmarch
p694
I3697
sVtrusted
p695
I3741
sVif
p696
I88
sVherding
p697
I2263
sVperform
p698
I2350
sVthings
p699
I239
sVmake
p700
I569
sVrecurrent
p701
I3615
sVadjectives
p702
I1736
sVmodality
p703
I3104
sVdverif
p704
I3009
sVdefies
p705
I2190
sVcomplex
p706
I1422
sVpotentially
p707
I659
sVsplit
p708
I2588
sVbabies
p709
I3031
sVbig
p710
I2854
sVavoids
p711
I348
sVseveral
p712
I2581
sVcapacities
p713
I1222
sVentitled
p714
I1471
sVindependent
p715
I93
sVpeaks
p716
I3404
sVperceptually
p717
I2891
sVstudy/scenario
p718
I3501
sVsocial
p719
I234
sVreckoning
p720
I3723
sVrain
p721
I2053
sVhand
p722
I1153
sV&c
p723
I2726
sVworkings
p724
I1730
sVopportunity
p725
I1021
sVthoughts
p726
I788
sVmentioning
p727
I3331
sVprescribed
p728
I2686
sVscenario
p729
I1302
sVprograms
p730
I1035
sVstimuli
p731
I754
sVmaxims
p732
I116
sVexternally
p733
I2881
sVthought]
p734
I2995
sVacademic
p735
I315
sVacademia
p736
I314
sVdominating
p737
I3045
sVsimulated
p738
I2843
sVclaims
p739
I852
sVparadigm
p740
I1597
sVpossesses
p741
I1103
sVleft
p742
I2770
sVunified
p743
I3351
sV[this
p744
I2103
sVbirth
p745
I3522
sVconsciousness
p746
I393
sVsentence
p747
I1671
sVphoto
p748
I143
sVsporting
p749
I2590
sVelman
p750
I2625
sVbandwidth
p751
I3886
sVreformation
p752
I149
sVidentify
p753
I3775
sVtransforms
p754
I800
sVhuman
p755
I864
sVuncooperative
p756
I2803
sVfacts
p757
I461
sVdistractor
p758
I3008
sVyes
p759
I3813
sVyet
p760
I1731
sVprevious
p761
I1904
sVadding
p762
I3029
sVposes
p763
I2051
sVacumen
p764
I1928
sVsimilarities
p765
I1680
sVhad
p766
I496
sVideal
p767
I3013
sVpassive
p768
I1601
sVpotential
p769
I2557
sVcollections
p770
I1129
sVboard
p771
I2152
sVeasy
p772
I436
sVrequiring
p773
I2384
sVoccurring
p774
I130
sVinterprets
p775
I2766
sVtolerable
p776
I2427
sVgave
p777
I862
sVlower-level
p778
I3548
sVmetaphorical
p779
I3838
sVbreaks
p780
I3000
sVonline
p781
I2340
sVposed
p782
I2635
sVpossible
p783
I658
sVm=c
p784
I3447
sVmorning-person
p785
I594
sVcultural
p786
I2002
sVsuffering
p787
I2602
sVconventionalization
p788
I31
sVbackground
p789
I954
sVdestroy
p790
I416
sVauthorship
p791
I346
sVshadow
p792
I3297
sVhighly
p793
I1256
sVwittgensteinian
p794
I3747
sVm=s
p795
I3448
sVapart
p796
I1115
sVmorphemes
p797
I2777
sVarticulated
p798
I1214
sVcontradict
p799
I1913
sVperforming
p800
I1606
sV=x
p801
I3417
sV=c-
p802
I3415
sVspecific
p803
I749
sVinformative
p804
I523
sVtransform
p805
I1971
sVofficer
p806
I2680
sVnight
p807
I609
sVblades
p808
I2469
sVzemel
p809
I3627
sVbeneficial
p810
I2466
sVright
p811
I2943
sVold
p812
I2681
sVdeal
p813
I1899
sVpeople
p814
I142
sVsuccessfully
p815
I2415
sVdead
p816
I3669
sVborn
p817
I1994
sVrecovery
p818
I2568
sVdear
p819
I1915
sVtutorial
p820
I804
sVembodied
p821
I3531
sVdense
p822
I3269
sVcommunications
p823
I1897
sVdropping
p824
I3370
sV-kirsh
p825
I311
sV/
I946
sVcreative
p826
I401
sVeverything
p827
I455
sVindividuals
p828
I996
sVanaphoras
p829
I244
sVindication
p830
I1093
sVcore
p831
I2480
sVmeanings
p832
I1276
sVdropped
p833
I3179
sVelucidate
p834
I1468
sVarbitrary
p835
I2135
sVgraduates
p836
I989
sVsaxe
p837
I1659
sVbrigades
p838
I958
sV[inferring
p839
I2091
sVpeer
p840
I2859
sVsurprisingness
p841
I3206
sVproperties
p842
I684
sVtakes
p843
I1311
sVcompose
p844
I3172
sVtheirs
p845
I2422
sVcitizens
p846
I1941
sVo
I229
sVinvigilator
p847
I1157
sVprobabilities
p848
I670
sVdedicate
p849
I2187
sVensure
p850
I1137
sVafternoon
p851
I322
sVcommit
p852
I2164
sVefforts
p853
I2491
sVslightly
p854
I744
sVautomatically
p855
I3826
sVnixon
p856
I1792
sVconsiderations
p857
I1756
sVstatements
p858
I3205
sVmodalities
p859
I587
sVas=bs
p860
I3421
sVxyz
p861
I2725
sVtwo
p862
I805
sVdown
p863
I429
sVd
I404
sVbeings
p864
I3654
sVtextual
p865
I2798
sVlieu
p866
I3547
sVreducing
p867
I3076
sVrounds
p868
I3866
sVmethods
p869
I582
sVunambiguous
p870
I3026
sVrely
p871
I2941
sVdeception
p872
I3528
sVinductions
p873
I2833
sVabstractions
p874
I1985
sVprecludes
p875
I2685
sVsupport
p876
I1052
sVsuffice
p877
I939
sVavailable
p878
I1991
sVapproximate
p879
I1742
sVclass
p880
I1224
sVstuck
p881
I756
sVnoting
p882
I2335
sVway
p883
I200
sVcrews
p884
I2483
sVmusic
p885
I2858
sV[i
p886
I2090
sV[philosophically
p887
I2096
sVhappy
p888
I497
sVlowest
p889
I1559
sVhead
p890
I1154
sVform
p891
I476
sVhappen
p892
I2025
sVdifferences
p893
I43
sVfailure
p894
I2884
sVsatisfactorily
p895
I1658
sVtrue
p896
I1316
sVinjury
p897
I2674
sV[should
p898
I2101
sVanalysis]
p899
I7
sVtraits
p900
I2077
sVcompositional
p901
I386
sVinside
p902
I527
sVmaximum
p903
I2312
sVuntil
p904
I809
sVretire
p905
I721
sVmaturing
p906
I2974
sV[[given
p907
I3307
sVpassenger
p908
I283
sVlabels
p909
I2033
sVcomputing
p910
I1084
sVmicro-macro
p911
I2714
sVsteady
p912
I2597
sVabstract
p913
I1357
sVhistory
p914
I3600
sVevidence
p915
I1477
sVlumped
p916
I1560
sVexist
p917
I898
sVship
p918
I3731
sVdent
p919
I2876
sVdistributions
p920
I1767
sVcheck
p921
I2733
sVshit
p922
I740
sVphysical
p923
I1102
sVvariance
p924
I3624
sVmarking
p925
I113
sVeventual
p926
I1475
sVno
p927
I611
sVagreeing
p928
I1833
sVconcluding
p929
I3315
sVstake
p930
I3568
sVwhen
p931
I202
sVtim
p932
I1970
sVinterested
p933
I97
sVrole
p934
I1653
sVcom/events/
p935
I967
sVtest
p936
I1110
sVtie
p937
I2799
sVcompany
p938
I2654
sVrealize
p939
I2940
sVcross-category
p940
I2001
sVerg
p941
I2498
sVpicture
p942
I2354
sVintend
p943
I2290
sVmodels
p944
I589
sVdescribe
p945
I2748
sVexchangeable]
p946
I2218
sVunwell
p947
I2702
sVtallness
p948
I1817
sVwrite-up
p949
I839
sVintent
p950
I3056
sVscores
p951
I2575
sVvariable
p952
I815
sVhurt
p953
I3374
sVprogresses
p954
I2367
sVfaster
p955
I464
sVapology
p956
I1934
sVassume
p957
I2139
sVproposed
p958
I1105
sVtogether
p959
I793
sVwarm
p960
I2619
sVtime
p961
I190
sVpush
p962
I3405
sVfasten
p963
I1143
sVconditionals
p964
I1754
sVbasically
p965
I1216
sVbreadth
p966
I365
sVinterdependency]
p967
I2292
sVconcept
p968
I390
sVmanaged
p969
I2539
sVchain
p970
I2826
sVswitched
p971
I2606
sVdance
p972
I405
sVcode-type
p973
I3888
sVglobal
p974
I988
sValternatives
p975
I6
sVfocus
p976
I475
sVleads
p977
I1554
sVmanages
p978
I278
sVskim
p979
I1885
sVcounterfactual
p980
I2183
sVcomputation
p981
I1999
sVskiing
p982
I2584
sVbattle
p983
I3389
sVchair
p984
I1909
sVpremises
p985
I2812
sVepistemic
p986
I896
sVrow
p987
I2572
sVcertainly
p988
I1408
sVinverse
p989
I1549
sVdepend
p990
I3432
sVclarification
p991
I22
sVgraph
p992
I1513
sVflash
p993
I1246
sVenvironment
p994
I1240
sVtracker
p995
I798
sVrhythm
p996
I722
sVmarks
p997
I114
sVanalogous
p998
I329
sV[of
p999
I2
sVscreen
p1000
I3727
sVcognitively
p1001
I2162
sVeliminate
p1002
I3632
sVdivision
p1003
I3275
sVadvantage
p1004
I2459
sVtends
p1005
I3902
sVnone
p1006
I1585
sVchoosing
p1007
I3758
sVchoice
p1008
I1896
sVrook
p1009
I2787
sVspecifics
p1010
I3567
sVreacts
p1011
I3721
sVcook
p1012
I3362
sVcoordiantion
p1013
I3316
sVengineering-style
p1014
I1470
sVminute
p1015
I585
sVcool
p1016
I259
sVperceived
p1017
I1605
sVaffiliations
p1018
I3650
sVpresented
p1019
I666
sVdid
p1020
I1459
sVturns
p1021
I803
sVproposals
p1022
I1799
sVleave
p1023
I909
sVdiscrete
p1024
I1235
sVbikes
p1025
I360
sViconicity
p1026
I87
sVdiv
p1027
I2487
sVperceptual
p1028
I2045
sVround
p1029
I155
sVadded
p1030
I3354
sVtypology
p1031
I2802
sVprevent
p1032
I3716
sVunexpected
p1033
I1718
sVsays
p1034
I158
sVoccurrence
p1035
I918
sVmulti-agent
p1036
I2322
sVdealing
p1037
I220
sVprediction
p1038
I662
sVsign
p1039
I168
sVaffiliation
p1040
I3749
sVhigher-order
p1041
I2266
sVcost
p1042
I218
sVdeutscher
p1043
I1974
sV=l
p1044
I3416
sVpatient
p1045
I2348
sVexplaining-away/scalar
p1046
I3768
sVrough
p1047
I1883
sVessence
p1048
I1473
sVappear
p1049
I246
sVmoments
p1050
I3014
sVmetaphysical
p1051
I3858
sVdisease
p1052
I2662
sVuniform
p1053
I2435
sVcurrent
p1054
I1441
sVdeficiencies
p1055
I1447
sVsuspect
p1056
I2905
sVgoes
p1057
I1253
sVshared
p1058
I738
sVappeal
p1059
I1213
sVpartners
p1060
I3709
sVmr
p1061
I1099
sVunderstanding
p1062
I808
sVwater
p1063
I1064
sVyards
p1064
I2623
sVaddress
p1065
I318
sValone
p1066
I2125
sVcomponential
p1067
I3361
sValong
p1068
I1738
sVappears
p1069
I1834
sVchange
p1070
I374
sVbox
p1071
I1401
sVsending
p1072
I1666
sVkalman
p1073
I3604
sVshift
p1074
I2842
sVstudied
p1075
I2412
sVexploitation
p1076
I2831
sVspheres
p1077
I1689
sVaccomplished
p1078
I3882
sVpoisson
p1079
I3612
sVdomains
p1080
I1464
sVweird
p1081
I2645
sVautomaton
p1082
I1079
sVstudies
p1083
I2072
sVemerge
p1084
I1768
sVtasks
p1085
I2420
sVuseful
p1086
I814
sVperspectives
p1087
I1608
sVmorals
p1088
I3552
sVextra
p1089
I2882
sVproblematic
p1090
I3819
sVprefer
p1091
I1961
sVshark
p1092
I2068
sVlogical
p1093
I1787
sVflexibility
p1094
I901
sVlogically
p1095
I2035
sVcurve
p1096
I3175
sVreflective
p1097
I3848
sVscenario]
p1098
I2393
sVworking
p1099
I835
sVprove
p1100
I1037
sVsake
p1101
I3296
sVvisit
p1102
I1204
sVpredictions
p1103
I663
sVpermitted
p1104
I1168
sVscenarios
p1105
I1661
sVlive
p1106
I1010
sVexplicitly
p1107
I1486
sVandy
p1108
I1378
sVopposed
p1109
I919
sVmemory
p1110
I580
sVaustralian
p1111
I849
sVtheoretical
p1112
I1313
sVtoday
p1113
I3851
sVwicked
p1114
I830
sVintroducing
p1115
I2296
sVduality
p1116
I2202
sVsessions
p1117
I2580
sVclub
p1118
I2653
sVacceptable
p1119
I2109
sVapparent
p1120
I1076
sVenvelope
p1121
I1139
sVsparsely
p1122
I3298
sVvisual
p1123
I304
sVrigid
p1124
I1651
sVfirst-hand
p1125
I1946
sVcorresponding
p1126
I3853
sVcases
p1127
I254
sVeffort
p1128
I2490
sVriders
p1129
I2062
sVcapturing
p1130
I1405
sVfly
p1131
I2244
sVorganizations
p1132
I1025
sVsheds
p1133
I931
sVanything
p1134
I333
sVcar
p1135
I1223
sVoriginally
p1136
I1959
sVconstraint
p1137
I1429
sVoscillator
p1138
I136
sVlabeled
p1139
I3238
sVcan
p1140
I252
sVfollowing
p1141
I984
sVmaking
p1142
I1561
sVarrive
p1143
I1935
sVplacements
p1144
I1032
sVeyetracking
p1145
I3047
sVclaim
p1146
I1910
sVmonths
p1147
I2677
sVfigure
p1148
I2242
sVmirrors
p1149
I3699
sVpredict
p1150
I1288
sVagent
p1151
I1323
sVreqs
p1152
I713
sVtopic
p1153
I797
sVweighting
p1154
I2851
sVstroke
p1155
I2599
sVincremental
p1156
I1862
sVperformed
p1157
I641
sVallowed
p1158
I1114
sVcounting
p1159
I3006
sVoccur
p1160
I618
sVpinto
p1161
I1612
sVrequirements
p1162
I2691
sV[note
p1163
I2094
sVwatching
p1164
I3575
sVjason
p1165
I3487
sVwrite
p1166
I838
sVbeat
p1167
I3357
sVcriterion
p1168
I890
sVfourth
p1169
I2247
sVplus
p1170
I653
sVguarantee
p1171
I3439
sVdominance
p1172
I3368
sVmap
p1173
I2931
sVlevy
p1174
I556
sVeights
p1175
I2493
sVcooperativity
p1176
I1760
sVmay
p1177
I226
sVmax
p1178
I2541
sVaverted
p1179
I13
sVgrounds
p1180
I3636
sVmembership
p1181
I2038
sVproduce
p1182
I1104
sVdeviates
p1183
I41
sVdate
p1184
I2659
sVsuch
p1185
I179
sVtruly
p1186
I2952
sVdata
p1187
I406
sVrebus
p1188
I3878
sVlifting
p1189
I2530
sVman
p1190
I1788
sVnatural
p1191
I602
sVremember
p1192
I2569
sVcorrelate
p1193
I395
sVjoint
p1194
I275
sV[for
p1195
I1350
sVmaybe
p1196
I576
sVapproximation
p1197
I3420
sVexplicit
p1198
I267
sVyielding
p1199
I1732
sVst
p1200
I2592
sVfluent
p1201
I1855
sVinform
p1202
I1156
sVannealing
p1203
I8
sVso
p1204
I937
sVdeposit
p1205
I1130
sVned
p1206
I3163
sVrepresentation
p1207
I711
sVbenni
p1208
I2467
sVtalk
p1209
I296
sV[how
p1210
I2089
sVimagining
p1211
I2271
sVexclusive
p1212
I2018
sVserving
p1213
I1674
sVseeing
p1214
I160
sVindeed
p1215
I2282
sVpointed
p1216
I1614
sVfamilial
p1217
I3536
sVmainly
p1218
I3787
sVentity
p1219
I446
sVcourse
p1220
I398
sVstatistical
p1221
I2844
sVargued
p1222
I1077
sVcold
p1223
I1748
sVstill
p1224
I176
sVblocked
p1225
I2999
sVderive
p1226
I414
sVgroup
p1227
I495
sVkitcher
p1228
I3545
sVinteresting
p1229
I531
sVorganisation
p1230
I1024
sVjim
p1231
I2887
sVamazing
p1232
I1930
sVsuboptimal
p1233
I2796
sVforms
p1234
I1857
sVtajfel
p1235
I3807
sVconstitutes
p1236
I887
sVpolicy
p1237
I656
sVcoordinated
p1238
I2180
sV[pylyshyn
p1239
I1354
sVmain
p1240
I111
sVcausation
p1241
I2157
sVhappened
p1242
I2512
sVpremack
p1243
I3248
sV[discriminate
p1244
I1347
sVsemantically
p1245
I3412
sVmatches
p1246
I1014
sVnoe
p1247
I3494
sVspeeding
p1248
I2901
sVprocesses
p1249
I925
sVintroduce
p1250
I1544
sV-ing
p1251
I1
sVlunch
p1252
I3549
sVhamilton
p1253
I3541
sVnot
p1254
I127
sVprima
p1255
I3457
sVnow
p1256
I615
sVhall
p1257
I1152
sVnor
p1258
I915
sVaccommodate
p1259
I2110
sVterm
p1260
I1193
sVname
p1261
I600
sVlies
p1262
I2305
sVjanuary
p1263
I1002
sVdrop
p1264
I430
sVestablishing
p1265
I57
sVpossibilities
p1266
I3844
sVbursts
p1267
I2474
sVnodding
p1268
I1870
sVh
I2711
sVentirely
p1269
I895
sVcommunicates
p1270
I3890
sVem
p1271
I442
sVdomain
p1272
I1463
sVen
p1273
I2209
sVsignificantly
p1274
I1967
sVproposean
p1275
I3018
sVed
p1276
I437
sVeg
p1277
I2492
sVdirecting
p1278
I45
sVconventions
p1279
I32
sVgaps
p1280
I1502
sV[we
p1281
I2104
sVex
p1282
I1478
sVyear
p1283
I842
sVassumption
p1284
I2140
sVgirl
p1285
I863
sVsuzanne
p1286
I3503
sVspiking
p1287
I751
sVintended
p1288
I1537
sVemerges
p1289
I2984
sVshown
p1290
I2399
sVtaxonomy
p1291
I3303
sVspace
p1292
I748
sVfurthermore
p1293
I1917
sVgeneration
p1294
I1858
sVlooking
p1295
I2534
sVseriously
p1296
I733
sVrational
p1297
I1295
sVstability/core
p1298
I2593
sVreceiving
p1299
I1297
sVcorrect
p1300
I1437
sVshows
p1301
I1108
sVmaneuver
p1302
I2889
sVafter
p1303
I1113
sVfeatureless
p1304
I3281
sVtheory
p1305
I941
sVstate
p1306
I1691
sVcars
p1307
I372
sVnon-agentic
p1308
I3378
sVcontain
p1309
I2981
sVmechanisms
p1310
I279
sVpossibility
p1311
I1615
sVquite
p1312
I2374
sVlmh
p1313
I2533
sVdependencies
p1314
I3226
sVcomplicated
p1315
I1423
sVbayes
p1316
I2823
sVorg
p1317
I1022
sVjudea
p1318
I3694
sVinductive
p1319
I1529
sVaxioms
p1320
I3630
sVcare
p1321
I371
sVadvance
p1322
I319
sVtraining
p1323
I2616
sVon-top
p1324
I3337
sVderivation
p1325
I1455
sVlanguage
p1326
I106
sVselections
p1327
I3411
sVresource
p1328
I3617
sVimpose
p1329
I2272
sVhonest
p1330
I3052
sVthing
p1331
I783
sVvolker
p1332
I3165
sVplace
p1333
I649
sVraleigh
p1334
I1038
sVinvitation
p1335
I3236
sVrelational
p1336
I3250
sVthink
p1337
I187
sV-noam
p1338
I1072
sVexotic
p1339
I979
sVhalbach
p1340
I1918
sVinitial
p1341
I1534
sVpredictive
p1342
I1620
sVvariables
p1343
I816
sVyourself
p1344
I845
sVcross-trial
p1345
I36
sVlong
p1346
I1953
sVdirectly
p1347
I1851
sVspecificity
p1348
I3736
sVcarry
p1349
I882
sVxs
p1350
I1827
sVmessage
p1351
I1565
sVopen
p1352
I2780
sVethics
p1353
I3533
sVallusion
p1354
I2123
sVfmri
p1355
I3481
sVcity
p1356
I1942
sVlittle
p1357
I562
sVnecessarily
p1358
I1576
sVchecked
p1359
I2734
sVexists
p1360
I3680
sVmeaningful
p1361
I3788
sVstructured
p1362
I1310
sVanyone
p1363
I332
sVimposing
p1364
I2275
sVgrasping
p1365
I3326
sVunformalized
p1366
I1719
sVconvention
p1367
I30
sVstructures
p1368
I178
sVfriend
p1369
I2885
sVeyes
p1370
I3535
sVkahneman
p1371
I3544
sVon/
p1372
I2550
sVhub
p1373
I995
sV[meaning
p1374
I1830
sVbrains
p1375
I1908
sVcontinuous
p1376
I2000
sVaccurately
p1377
I1207
sVattempt
p1378
I2143
sVblurred
p1379
I1993
sVthan
p1380
I779
sVsemantics
p1381
I163
sVpopulation
p1382
I3613
sVset-up
p1383
I2397
sVwide
p1384
I1069
sVthird
p1385
I785
sVaccordance
p1386
I2112
sVrequire
p1387
I714
sVepistemically
p1388
I2708
sVfuture
p1389
I482
sVcards
p1390
I20
sVoutcome
p1391
I3452
sVinferring
p1392
I1337
sVgenerality
p1393
I1503
sVann
p1394
I848
sVcompatibilism
p1395
I3869
sVworcester
p1396
I2622
sVgeneralization
p1397
I67
sVvoices
p1398
I3812
sV[also
p1399
I2083
sVsay
p1400
I726
sVrained
p1401
I2054
sVseana
p1402
I728
sVsaw
p1403
I2574
sVany
p1404
I331
sVspeakers
p1405
I1888
sVcomputationally
p1406
I256
sVnuanced
p1407
I1871
sVsubgoals
p1408
I3350
sVmapping
p1409
I3239
sViterated
p1410
I100
sVideas
p1411
I512
sVnote
p1412
I2334
sVother
p1413
I137
sVgoodman
p1414
I1510
sVmaintain
p1415
I2537
sVhorowitz
p1416
I3138
sVtake
p1417
I771
sVattempted
p1418
I2144
sVbailey
p1419
I214
sVperformance
p1420
I284
sVencouraged
p1421
I2494
sVswitching
p1422
I1701
sVchannel
p1423
I1409
sVyounger
p1424
I2976
sVbegin
p1425
I1394
sVsure
p1426
I767
sVmultiple
p1427
I2324
sVshade
p1428
I3729
sVnormal
p1429
I613
sVarguing
p1430
I3515
sVcorrelation
p1431
I888
sVclearer
p1432
I2160
sVthoroughly
p1433
I3387
sVfalls
p1434
I462
sVimportantly
p1435
I2521
sVpair
p1436
I3707
sVanalytically
p1437
I2129
sV]
I1355
sVoperate
p1438
I2781
sVespecially
p1439
I897
sVinterdependency-type
p1440
I1538
sVconsidered
p1441
I1757
sVlater
p1442
I549
sVimplications
p1443
I903
sV[an
p1444
I2084
sVjurafsky
p1445
I2973
sVlarry
p1446
I1923
sVcortex
p1447
I3095
sVsenior
p1448
I1181
sVtreats
p1449
I3740
sVquantity
p1450
I1632
sVprecise
p1451
I3342
sVnlp
p1452
I1582
sVlexicon
p1453
I3186
sVshot
p1454
I2582
sVobject-word
p1455
I3067
sVhutchins
p1456
I3285
sVshow
p1457
I233
sVsynchronous
p1458
I2865
sVdiscovered
p1459
I2922
sVelevate
p1460
I440
sVinconsistent
p1461
I2278
sVnlg
p1462
I1869
sVthreshold
p1463
I1818
sVdiverge
p1464
I2198
sVimagined
p1465
I2712
sVground
p1466
I1514
sVslot
p1467
I3621
sVboundaries
p1468
I1400
sVdikker
p1469
I3477
sVslow
p1470
I2898
sVratio
p1471
I1294
sVtitle
p1472
I1195
sVevaluative
p1473
I2709
sVkirsh
p1474
I541
sVbehind
p1475
I249
sVtexture
p1476
I3158
sVanalytic
p1477
I2128
sVonly
p1478
I134
sVgoing
p1479
I1254
sVblack
p1480
I1399
sVtreasury
p1481
I1197
sVenthusiasm
p1482
I2497
sVawareness
p1483
I349
sVdirected
p1484
I2957
sVcorrectly
p1485
I2656
sVget
p1486
I485
sVwitness
p1487
I1973
sVjazz
p1488
I2857
sVfreezing
p1489
I2971
sVexpectation
p1490
I2219
sVexpects
p1491
I2753
sVleon
p1492
I2986
sVcannot
p1493
I19
sVsymmetrically
p1494
I3901
sVprimates
p1495
I3249
sVclosure
p1496
I1842
sVintrinsically
p1497
I3287
sVsettings
p1498
I735
sVad-hoc
p1499
I2117
sVhinges
p1500
I2929
sVyield
p1501
I843
sVsummary
p1502
I765
sVsum
p1503
I3850
sVscientist
p1504
I2064
sVpredicted
p1505
I2938
sVmapped
p1506
I2932
sVunspecification
p1507
I2805
sVwhere
p1508
I828
sVcommunicated
p1509
I3661
sVvision
p1510
I303
sVsensory-motor
p1511
I3082
sVphysically
p1512
I2048
sVwittgenstinian
p1513
I2451
sVcommitted
p1514
I2165
sVcomparable
p1515
I1998
sVpsych
p1516
I3802
sVreductio
p1517
I1801
sVrelative
p1518
I2690
sVnamely
p1519
I2327
sVnon-causal
p1520
I3245
sVcollege
p1521
I1943
sVsport
p1522
I2697
sVconcern
p1523
I1845
sVnon-expert
p1524
I612
sVfails
p1525
I2239
sVpowerpoint
p1526
I2992
sVvoluntary
p1527
I1062
sVcompounds
p1528
I387
sVways
p1529
I2079
sVreview
p1530
I1980
sVlexical
p1531
I1785
sVcommitments
p1532
I3004
sVprocedures
p1533
I1290
sVoutside
p1534
I632
sV[do
p1535
I2086
sVbetween
p1536
I16
sVcautiously
p1537
I3169
sVreading
p1538
I3293
sVacross
p1539
I1363
sVnotice
p1540
I1161
sVsompolinsky
p1541
I3622
sVjobs
p1542
I1003
sVparent
p1543
I3068
sVbump
p1544
I2472
sVgleitman
p1545
I3011
sVpoints
p1546
I2937
sVflow
p1547
I1495
sVsignaled
p1548
I1303
sVue
p1549
I3810
sVconcentrate
p1550
I2980
sVanalyzed
p1551
I1377
sVpens
p1552
I1166
sVcome
p1553
I382
sVbrain-to-brain
p1554
I3472
sVphilosophically
p1555
I3340
sVresides
p1556
I2385
sVtutors
p1557
I1201
sVvul
p1558
I821
sVmonk
p1559
I591
sVfeatural
p1560
I465
sVcalled
p1561
I2705
sVpropagation
p1562
I3561
sVs
I156
sVwheels
p1563
I827
sVutterance
p1564
I1319
sVcomes
p1565
I1226
sVamong
p1566
I212
sVfiltering
p1567
I3598
sVcancer
p1568
I960
sVcolor
p1569
I1418
sVcontinuation
p1570
I1847
sValtruism
p1571
I3514
sVspecification
p1572
I2793
sVperiod
p1573
I2351
sVmirroring
p1574
I3490
sVsampling
p1575
I2839
sVtwin
p1576
I2721
sVlearning
p1577
I108
sVarticle
p1578
I11
sVante
p1579
I3867
sVconstant
p1580
I2173
sVcrew
p1581
I2482
sVdisciplinary
p1582
I1131
sVboat
p1583
I2648
sVadults
p1584
I2820
sVconsidering
p1585
I1758
sVteddy
p1586
I2610
sVstretch
p1587
I2598
sVwest
p1588
I3210
sVclassic
p1589
I3312
sVinformed
p1590
I1532
sVcarey
p1591
I3220
sVpragmatics
p1592
I1797
sVproduction
p1593
I677
sVdictator
p1594
I221
sVcombined
p1595
I1419
sVaboutness
p1596
I2107
sVlinguistic
p1597
I560
sVprototype
p1598
I686
sVreconstructing
p1599
I3820
sVwants
p1600
I242
sVdirection
p1601
I3273
sVenable
p1602
I1238
sVheuristics
p1603
I3162
sVdesigned
p1604
I2193
sVformed
p1605
I1497
sVconnections
p1606
I3094
sVphotos
p1607
I646
sVobserve
p1608
I917
sVoptimality
p1609
I3839
sVexternal
p1610
I1244
sVdeclaration
p1611
I2660
sVbayesian
p1612
I352
sVsticky
p1613
I3084
sVirrelevant
p1614
I3693
sVhidden
p1615
I2264
sVthose
p1616
I786
sVpilot
p1617
I648
sVcase
p1618
I1081
sVmyself
p1619
I1957
sVdeveloping
p1620
I974
sVthese
p1621
I298
sVmacro-level
p1622
I3060
sVinvoking
p1623
I1550
sVassociates
p1624
I2912
sVongoing
p1625
I3246
sVmany
p1626
I572
sVsituation
p1627
I2402
sVmargin
p1628
I3377
sVamericans
p1629
I1931
sVeventually
p1630
I1476
sVendowed
p1631
I1089
sVbrow
p1632
I17
sVepistemological
p1633
I3678
sVaccording
p1634
I2113
sVcluster
p1635
I3264
sVregularity
p1636
I2381
sVgood
p1637
I491
sVembrace
p1638
I2206
sVattributed
p1639
I3167
sVmoreso
p1640
I3063
sVmovements
p1641
I125
sVbags
p1642
I1120
sVdifferent
p1643
I44
sVdevelop
p1644
I39
sVapril
p1645
I1116
sVtheorized
p1646
I1314
sVacros
p1647
I3577
sVbowl
p1648
I3358
sVsame
p1649
I157
sVintelligently
p1650
I1095
sVfiguring
p1651
I469
sVepoch
p1652
I3096
sVpac
p1653
I3453
sVspeech
p1654
I750
sVdamon
p1655
I3267
sVdocument
p1656
I1462
sVevents
p1657
I452
sVpan
p1658
I3379
sVweek
p1659
I1066
sVvisually
p1660
I3087
sVfinish
p1661
I470
sVdriver
p1662
I264
sVcounterfactually
p1663
I2184
sVdirector
p1664
I263
sVrunning
p1665
I1041
sVcodes
p1666
I3889
sVdriven
p1667
I3178
sVfodor
p1668
I3049
sVpaired-down
p1669
I3339
sVchanging
p1670
I376
sVrelies
p1671
I3150
sVgerrymandering
p1672
I3399
sVtracking
p1673
I300
sV[get
p1674
I1351
sVlargely
p1675
I907
sVminimize
p1676
I2989
sVexpression
p1677
I2224
sVrandom
p1678
I2785
sVroughly
p1679
I1655
sVwithout
p1680
I832
sVsolve
p1681
I1886
sVcomponents
p1682
I385
sVsignal-response
p1683
I1679
sVcoordinate
p1684
I2179
sVmodel
p1685
I122
sVreward
p1686
I3618
sVinterface
p1687
I3692
sVbodies
p1688
I3655
sVjustify
p1689
I1271
sVsummer
p1690
I1051
sVoutdoor
p1691
I3705
sVnoah
p1692
I3192
sVbeing
p1693
I15
sVcaptures
p1694
I1080
sVguided
p1695
I2260
sVergos
p1696
I2501
sVactions
p1697
I316
sV-claude
p1698
I3814
sVcommunities
p1699
I969
sVmetaphysically
p1700
I2713
sVshowed
p1701
I2583
sVaspect
p1702
I3815
sVtouch
p1703
I1712
sVn
I2678
sVspeed
p1704
I2900
sVcaptured
p1705
I370
sVhalfway
p1706
I3012
sVdeath
p1707
I3670
sVgrounded
p1708
I2259
sVgrouped
p1709
I76
sVthinking
p1710
I784
sVseems
p1711
I1806
sVexcept
p1712
I457
sVempiricism
p1713
I3676
sVimprovement
p1714
I2522
sVlets
p1715
I553
sVsetting
p1716
I2398
sVahhhh
p1717
I2821
sVbigger
p1718
I3034
sVversa
p1719
I2445
sVinformation-theoretic
p1720
I2286
sVflashing
p1721
I1247
sVcareers
p1722
I962
sVreal
p1723
I1635
sVdissociable
p1724
I2197
sVnonpredictive
p1725
I2333
sVaspects
p1726
I1382
sVaround
p1727
I339
sVdifferentiation
p1728
I2006
sVdesperately
p1729
I2486
sVread
p1730
I698
sVpapers
p1731
I633
sVearly
p1732
I434
sVpronouns
p1733
I2637
sVpredetermined
p1734
I3715
sVtraffic
p1735
I2906
sVenvironments
p1736
I2211
sVmom
p1737
I3062
sVdevault
p1738
I1849
sVworld
p1739
I837
sVaiming
p1740
I2460
sVmoreover
p1741
I2318
sVvague
p1742
I1320
sVutterances
p1743
I1726
sVachieve
p1744
I3649
sVreduces
p1745
I3075
sVserves
p1746
I1673
sVfacing
p1747
I2883
sVbenefit
p1748
I878
sVt
I180
sVfully
p1749
I1092
sVoutput
p1750
I631
sVtower
p1751
I2429
sVrevision
p1752
I2942
sVreduced
p1753
I3408
sVsatisfactory
p1754
I1803
sVconditional
p1755
I1753
sVmoving
p1756
I2547
sVarturs
p1757
I3217
sVcognitive
p1758
I1225
sVcalculated
p1759
I2153
sVelements
p1760
I3280
sVrespect
p1761
I1647
sVquestionnaire
p1762
I2687
sVmatching
p1763
I115
sVprovided
p1764
I1171
sVkaiser
p1765
I2628
sVgrice
p1766
I75
sVreconfigurations
p1767
I1879
sVconfirm
p1768
I26
sVlegal
p1769
I2302
sVcritical
p1770
I3043
sVinject
p1771
I525
sVprovides
p1772
I2371
sVinterperet
p1773
I1267
sVunderstandings
p1774
I1716
sVrefer
p1775
I3821
sVbiased
p1776
I3519
sVcontingent
p1777
I216
sVpower
p1778
I1617
sVintimate
p1779
I532
sVinternship
p1780
I999
sVretains
p1781
I1650
sVequivalent
p1782
I2216
sVfitness
p1783
I2508
sVcommunicate
p1784
I1227
sVtuition
p1785
I1199
sVnotably
p1786
I3703
sVbroken
p1787
I3262
sVco-occurances
p1788
I3002
sVbiases
p1789
I1398
sVinherent
p1790
I1533
sVdrawn
p1791
I2750
sVontology
p1792
I3290
sVthrow
p1793
I2075
sVcomparison
p1794
I1750
sVok
p1795
I622
sVorigins
p1796
I3895
sVoh
p1797
I132
sVparalysis
p1798
I634
sVgenerated
p1799
I1507
sVpractical
p1800
I2361
sVmutually
p1801
I2326
sVpockets
p1802
I654
sVact
p1803
I1074
sVdiscusses
p1804
I3478
sVor
p1805
I135
sVconfidence
p1806
I3588
sVallowing
p1807
I3513
sVreferenced
p1808
I2717
sVburning
p1809
I3656
sVcommunication
p1810
I23
sVpairings
p1811
I3247
sVaccumulates
p1812
I2114
sVobhjects
p1813
I3793
sVaccounts
p1814
I1361
sVdetermine
p1815
I2004
sVapologize
p1816
I1933
sVmark
p1817
I3146
sVyour
p1818
I844
sVtheoretically
p1819
I2423
sVtechnically
p1820
I2608
sVfast
p1821
I3097
sVher
p1822
I81
sVarea
p1823
I337
sVassumed
p1824
I1745
sVstrictly
p1825
I1185
sVthere
p1826
I185
sVhey
p1827
I2928
sVstark
p1828
I1308
sVdesert
p1829
I3672
sVsuppositions
p1830
I3646
sVstart
p1831
I752
sVunreliability
p1832
I3208
sVcats
p1833
I373
sVlow
p1834
I564
sVlot
p1835
I1558
sVassumes
p1836
I1385
sVvicente
p1837
I817
sVverb
p1838
I3257
sVrepeatedness
p1839
I2896
sVcomplete
p1840
I24
sVenough
p1841
I1239
sVunconformable
p1842
I1714
sVmammals
p1843
I3550
sVdangers
p1844
I2658
sVdelayed
p1845
I38
sV[go
p1846
I1352
sVphilosophers
p1847
I1796
sVposterior
p1848
I3496
sVbrain
p1849
I3093
sVmovement-based
p1850
I3790
sVantiquated
p1851
I3579
sVtrying
p1852
I1892
sVshannon
p1853
I1676
sVlonger
p1854
I1954
sVpull
p1855
I3803
sVapplying
p1856
I2133
sVmodel]
p1857
I2317
sVembedded
p1858
I2751
sVnoiseless
p1859
I2934
sVobjective
p1860
I2336
sVvice
p1861
I2446
sVrobustness
p1862
I3619
sVmisbinding
p1863
I3607
sVinferable
p1864
I3691
sVbeliefs
p1865
I1327
sVdetailed
p1866
I417
sVtoilet
p1867
I1196
sVdefinitions
p1868
I1916
sVmicklos
p1869
I120
sVasking
p1870
I2137
sVai
p1871
I3883
sVcertain
p1872
I963
sVcitation
p1873
I1414
sVam
p1874
I1739
sVal
p1875
I3166
sVdeep
p1876
I261
sVresultant
p1877
I719
sVexamine
p1878
I2752
sVdeem
p1879
I2188
sVensuing
p1880
I2496
sVgoverned
p1881
I2255
sVoxhub
p1882
I1030
sVdiversity
p1883
I2199
sVmoves
p1884
I1574
sVpreschoolers
p1885
I3801
sVmdp
p1886
I2313
sVfill
p1887
I1491
sVagain
p1888
I1929
sVassessing
p1889
I2138
sVmoniker
p1890
I1571
sVideally
p1891
I1860
sVdrivers
p1892
I1236
sVgraduate
p1893
I493
sVproductively
p1894
I2783
sVfield
p1895
I982
sVwithin-trial
p1896
I206
sVvalid
p1897
I3352
sVweights
p1898
I2620
sVyou
p1899
I210
sV-lera
p1900
I312
sVpresenting
p1901
I3559
sVpoor
p1902
I657
sVbriefly
p1903
I1124
sVoneself
p1904
I1338
sVseparate
p1905
I2066
sVstudents
p1906
I757
sVracca
p1907
I1877
sVgenetically
p1908
I3098
sVsubsume
p1909
I2414
sVimportant
p1910
I516
sVintraconversational
p1911
I2295
sVserious
p1912
I2579
sVprototypical
p1913
I2370
sVpool
p1914
I3194
sVpsychology
p1915
I2814
sVbuilding
p1916
I1838
sV[need
p1917
I1353
sVcooperate/understanding
p1918
I2742
sVkirby
p1919
I865
sVinvest
p1920
I534
sVcoref
p1921
I1848
sVprojects-abroad
p1922
I1036
sVmass
p1923
I2987
sVquantify
p1924
I3406
sVargument-modifier
p1925
I2978
sVoverseas
p1926
I1027
sVresolution
p1927
I2061
sVoriginal
p1928
I627
sVrepresent
p1929
I3343
sVall
p1930
I211
sVdescartes
p1931
I1087
sVsemantic
p1932
I162
sVskeleton
p1933
I1810
sVchinese
p1934
I2979
sVgrassroots
p1935
I990
sVcaused
p1936
I1939
sVlack
p1937
I105
sVunique
p1938
I2909
sVvagueness
p1939
I1819
sVscalar
p1940
I1805
sVgeneralize
p1941
I1504
sVcooperative
p1942
I2744
sVon-the-fly
p1943
I1591
sVtalks
p1944
I3156
sVfollow
p1945
I2245
sVexpressions
p1946
I1243
sVdenotes
p1947
I3268
sVdecisions
p1948
I3129
sVchildren
p1949
I965
sVadena
p1950
I1369
sVsynthetic
p1951
I2419
sVequipment
p1952
I3679
sV|x|
p1953
I3469
sVreferring
p1954
I2060
sVethologists
p1955
I3534
sVtu
p1956
I802
sVvs
p1957
I1822
sVacting
p1958
I1832
sVopportunities
p1959
I1020
sVspirit
p1960
I3348
sVfoster
p1961
I479
sVarisen
p1962
I2136
sVth
p1963
I1054
sVextrapolate
p1964
I2229
sVsafety
p1965
I2695
sVenjoying
p1966
I3677
sVpresentation
p1967
I3017
sVtraditionally
p1968
I2948
sVta
p1969
I770
sVghana
p1970
I987
sVactivities
p1971
I2458
sVincorporate
p1972
I2279
sVreturned
p1973
I2693
sVstraightforward
p1974
I2903
sVsitting
p1975
I3251
sVvery
p1976
I301
sVinduce
p1977
I2285
sVpuzzles
p1978
I2638
sVdomain-specific
p1979
I426
sVnovel
p1980
I2779
sVworst
p1981
I3028
sVinterpreting
p1982
I2627
sVdecide
p1983
I3007
sVcompositionality
p1984
I1424
sVcondition
p1985
I2655
sVtreating
p1986
I1905
sVecholocation
p1987
I1466
sVaccompanying
p1988
I1359
sVstimulus
p1989
I3085
sVlist
p1990
I3329
sVapplicable
p1991
I247
sVinsufficiently
p1992
I1536
sVjuxtaposition
p1993
I102
sVamend
p1994
I3628
sVsane
p1995
I724
sVsmall
p1996
I1183
sVbiological
p1997
I3520
sV->
p1998
I310
sVsank
p1999
I3201
sVflick
p2000
I1248
sVquicker
p2001
I3112
sVten
p2002
I2643
sVabstracted
p2003
I3509
sVappearance
p2004
I3356
sVskin
p2005
I3732
sVpast
p2006
I638
sVrate
p2007
I2566
sVdesign
p2008
I415
sVperspective
p2009
I1607
sVpass
p2010
I869
sVfurther
p2011
I2023
sVcanonical
p2012
I2154
sVdissertation
p2013
I421
sVwhat
p2014
I201
sVcues
p2015
I1440
sVdarkness
p2016
I3668
sVrichard
p2017
I1802
sVdeeply
p2018
I410
sVsection
p2019
I1664
sVticks
p2020
I3207
sVlearner
p2021
I868
sVversion
p2022
I1821
sVinferences
p2023
I1336
sVarcheology
p2024
I3752
sValva
p2025
I3470
sVlearned
p2026
I908
sVracing
p2027
I2565
sVpublic
p2028
I231
sVcontrast
p2029
I1230
sVmovement
p2030
I2778
sVprobmods
p2031
I3195
sVfull
p2032
I481
sVostensive
p2033
I1285
sVtags
p2034
I1190
sVpromising
p2035
I1629
sVcomponent
p2036
I1844
sVcommunicable
p2037
I3660
sVhours
p2038
I507
sVmodular
p2039
I1570
sVshouldn
p2040
I291
sVanticipation
p2041
I2853
sVoperating
p2042
I2343
sVdirections
p2043
I2009
sVstrong
p2044
I1969
sVobserving
p2045
I1590
sVverifiable
p2046
I3743
sVsearch
p2047
I2840
sVgeneralizing
p2048
I2252
sVahead
p2049
I2868
sVintroductory
p2050
I1547
sVallows
p2051
I324
sVcommunicatively
p2052
I3662
sVexperience
p2053
I899
sVprior
p2054
I1289
sVamount
p2055
I1211
sVlanguage-independent
p2056
I3872
sVflouting
p2057
I2756
sVpublished
p2058
I691
sVaction
p2059
I4
sVargumentations
p2060
I338
sVnarrow
p2061
I601
sVoptions
p2062
I3795
sVbodes
p2063
I2470
sVfaculties
p2064
I3438
sVvia
p2065
I302
sVschema-consistent
p2066
I3115
sVmarginal
p2067
I573
sV[potentially
p2068
I2098
sVasd
p2069
I3755
sVquestioned
p2070
I3643
sVask
p2071
I342
sVanalyzing
p2072
I1212
sVfactoring
p2073
I2234
sVcommonalities
p2074
I1420
sVestablish
p2075
I1474
sVselect
p2076
I3410
sVreadily
p2077
I3722
sVconventional
p2078
I853
sVeye
p2079
I61
sVproceed
p2080
I1291
sVboroditsky
p2081
I362
sVcross-situational
p2082
I402
sVchaotic
p2083
I2965
sVcompensate
p2084
I3360
sVextraneous
p2085
I3229
sVtaken
p2086
I772
sVglossing
p2087
I2926
sViteratively
p2088
I2298
sVachieving
p2089
I1321
sVhegemony
p2090
I499
sVmore
p2091
I280
sVinferential
p2092
I1264
sVasks
p2093
I3756
sVdoor
p2094
I3766
sVknows
p2095
I1552
sVbumped
p2096
I2473
sVimmersion
p2097
I1523
sVhoffman
p2098
I2268
sVcontrolling
p2099
I3525
sVstick
p2100
I175
sVparticular
p2101
I140
sVknown
p2102
I545
sVoxytocin
p2103
I3556
sVnormative
p2104
I3148
sVsuffered
p2105
I2699
sVcontext-driven
p2106
I1432
sVkeeping
p2107
I539
sVcorpus
p2108
I2983
sVhour
p2109
I506
sVscience
p2110
I1663
sVequation
p2111
I3532
sVremain
p2112
I1301
sVbias
p2113
I1397
sVnine
p2114
I2634
sVsent
p2115
I1966
sVlearn
p2116
I107
sVstrategies
p2117
I177
sVagentic
p2118
I3355
sVpick
p2119
I647
sVbeautiful
p2120
I1938
sVcompare
p2121
I1749
sVneeding
p2122
I1790
sVprompt
p2123
I682
sVdecay
p2124
I3590
sVstated
p2125
I2946
sVstacking
p2126
I2407
sVshare
p2127
I737
sVaccept
p2128
I2457
sVstates
p2129
I1694
sVminimum
p2130
I2316
sVimitation
p2131
I3778
sVsense
p2132
I1668
sVphrase
p2133
I3711
sVfeign
p2134
I2809
sVdress
p2135
I1134
sVoffspring
p2136
I3555
sVinformation
p2137
I522
sVneeds
p2138
I604
sVcourt
p2139
I3173
sVgoal
p2140
I490
sVet
p2141
I3181
sVrather
p2142
I696
sVacts
p2143
I1322
sVimplicature
p2144
I3139
sVunlucky
p2145
I2617
sVmaps
p2146
I2309
sVpossibly
p2147
I2991
sVutterer
p2148
I2440
sVsiret
p2149
I1809
sVbit
p2150
I2914
sVexplains
p2151
I3480
sVuncontraversally
p2152
I3904
sVpassant
p2153
I2347
sVsimplicity
p2154
I2791
sVmonte
p2155
I2836
sVplans
p2156
I652
sVincludes
p2157
I3483
sVcommunicating
p2158
I886
sVemulate
p2159
I1975
sVderived
p2160
I2192
sVsneak
p2161
I2586
sVquestioning
p2162
I1924
sVreflect
p2163
I3562
sVreferent
p2164
I706
sVbuffer
p2165
I3584
sVblood
p2166
I2647
sVcoming
p2167
I3587
sVverified
p2168
I2443
sVappealed
p2169
I1379
sVsloppy
p2170
I2585
sVbloom
p2171
I3887
sVresponse
p2172
I1648
sVshortcomings
p2173
I1678
sVshort
p2174
I1808
sV-http
p2175
I945
sVcooperating
p2176
I2743
sVdoctor
p2177
I1461
sVassign
p2178
I3121
sVsecs
p2179
I2578
sVextrapolation
p2180
I2230
sVspecifying
p2181
I3347
sVfundamental
p2182
I1501
sVmedia
p2183
I2774
sVputting
p2184
I2562
sVegg
p2185
I439
sVplaying
p2186
I2357
sVhofstadter
p2187
I3234
sVcircularity
p2188
I3631
sVrounded
p2189
I3200
sVhelp
p2190
I500
sVenhances
p2191
I3479
sVdeveloped
p2192
I1458
sVcloseness
p2193
I3827
sVuncooperatively
p2194
I2804
sVheld
p2195
I1155
sVpaper
p2196
I1164
sVthrough
p2197
I189
sVfilters
p2198
I2832
sVsigns
p2199
I1109
sVexistence
p2200
I2924
sVsuffer
p2201
I2698
sVpashler
p2202
I2838
sVcardiovascular
p2203
I2475
sVstyle
p2204
I1698
sVrapidly
p2205
I695
sV[relevant
p2206
I1205
sVprocessed
p2207
I2892
sVreferents
p2208
I3077
sVexact
p2209
I3322
sVactually
p2210
I1366
sVlate
p2211
I1952
sVdetected
p2212
I1088
sVsystems
p2213
I1703
sVsocietal
p2214
I235
sVmauvinakurike
p2215
I1866
sVmight
p2216
I583
sVmisalignment
p2217
I1567
sVwouldn
p2218
I1825
sVsomeone
p2219
I747
sVmotivated
p2220
I913
sVfood
p2221
I1147
sVpropose
p2222
I1630
sVimpossible
p2223
I3375
sVveggie
p2224
I1728
sVframework
p2225
I1250
sVoxford
p2226
I1028
sVys
p2227
I1829
sVassociation
p2228
I1383
sVmystery
p2229
I3244
sVeasily
p2230
I857
sVnon-coordination
p2231
I2331
sValways
p2232
I326
sVlevel
p2233
I1008
sVprivileged
p2234
I3719
sVcapability
p2235
I1840
sVcourses
p2236
I399
sViff
p2237
I3442
sVstopped
p2238
I2902
sVquds
p2239
I3198
sVirreducible
p2240
I3057
sVfound
p2241
I985
sVlikelihoods
p2242
I2307
sVdifficult
p2243
I2008
sVnotes
p2244
I614
sVreferred
p2245
I2059
sVheavy
p2246
I2671
sVeveryone
p2247
I454
sVmental
p2248
I1564
sVnativism
p2249
I3701
sVundetectable
p2250
I944
sVhouse
p2251
I225
sVfish
p2252
I3282
sVhard
p2253
I2513
sVreduce
p2254
I2379
sVidea
p2255
I511
sVused
p2256
I197
sVmacmillan
p2257
I1013
sVdeterministically
p2258
I3434
sVextended
p2259
I2226
sVexpect
p2260
I980
sVundertake
p2261
I2701
sVbeyond
p2262
I1396
sVevent
p2263
I451
sVreally
p2264
I1040
sVinstituting
p2265
I3860
sVdeals
p2266
I1444
sVsimplify
p2267
I2401
sVneanderthal
p2268
I3554
sVdivide
p2269
I2200
sVmissed
p2270
I2546
sVsolved
p2271
I2899
sVsince
p2272
I1968
sVresearch
p2273
I716
sVparticipants
p2274
I636
sVhealth
p2275
I992
sVother-initiated
p2276
I138
sValigned
p2277
I3309
sVissue
p2278
I1922
sVoccurs
p2279
I131
sVkantian
p2280
I3835
sVconceived
p2281
I1898
sVbelief
p2282
I2147
sVcausally
p2283
I3263
sVdisagree
p2284
I2921
sVfriday
p2285
I1149
sVguess
p2286
I77
sVdrives
p2287
I2880
sVdifficulty
p2288
I1232
sVreason
p2289
I926
sVproxy
p2290
I287
sVmembers
p2291
I1903
sVimagine
p2292
I2270
sVput
p2293
I692
sVteach
p2294
I3505
sVbeginning
p2295
I1395
sVgenerate
p2296
I2761
sVthrown
p2297
I3023
sVdefinition
p2298
I891
sVpairs
p2299
I2782
sVcomputers
p2300
I1083
sVmodularity
p2301
I123
sVamerican
p2302
I327
sVwither
p2303
I2450
sVexpecting
p2304
I3323
sVsensations
p2305
I1667
sVpure
p2306
I2372
sVconsequence
p2307
I2739
sVcontingency
p2308
I1434
sVexercising
p2309
I2667
sVshaunessy
p2310
I871
sVgrammatical
p2311
I2762
sVmicrofinance
p2312
I1016
sVprobability
p2313
I671
sVencoding
p2314
I3595
sVfeel
p2315
I2505
sVrelate
p2316
I1642
sVouiip
p2317
I1026
sVnumber
p2318
I916
sVinstances
p2319
I3328
sVtalked
p2320
I2720
sVdone
p2321
I51
sVconstruct
p2322
I1430
sVfeature-combination
p2323
I3230
sVslower
p2324
I3117
sVcups
p2325
I3174
sVstage
p2326
I1690
sVregret
p2327
I1963
sVdiffer
p2328
I1330
sVtablula-rasa
p2329
I3570
sVinfeasable
p2330
I3327
sVtemperature
p2331
I2848
sVscript
p2332
I1177
sVintroduction
p2333
I533
sVleading
p2334
I1006
sVmuhlstein
p2335
I2321
sVleast
p2336
I550
sVplayer
p2337
I1613
sVstation
p2338
I1695
sVpains
p2339
I1596
sVverifiably
p2340
I3744
sVorg/xwiki/bin/view/oxford+hub/
p2341
I1023
sVmacro-scale
p2342
I2772
sVscheme
p2343
I1042
sVbanana
p2344
I3122
sVobservations
p2345
I1589
sVconduit
p2346
I3391
sVstatement
p2347
I1889
sVrelationship
p2348
I1643
sVconvinces
p2349
I1914
sVpark
p2350
I3708
sVdippl
p2351
I3176
sVdiscover
p2352
I2878
sVself-initiated
p2353
I161
sVsciences
p2354
I3726
sVoptical
p2355
I1283
sVsignaling
p2356
I933
sVgnomon
p2357
I3283
sVnorms
p2358
I228
sVashley
p2359
I12
sVtranslation
p2360
I3465
sVbelieve
p2361
I1220
sVunrealistic
p2362
I3571
sVinconvenient
p2363
I1949
sVcenter
p2364
I3037
sVking
p2365
I2768
sVkind
p2366
I540
sVb
I350
sVdetermines
p2367
I1457
sVanticipate
p2368
I1932
sVobject-based
p2369
I3794
sVpinker
p2370
I3898
sVtelecommunications
p2371
I3738
sVyouth
p2372
I1071
sVdetermined
p2373
I418
sVmacro
p2374
I2771
sVschema
p2375
I3114
sVtreated
p2376
I2800
sVinteractive
p2377
I96
sVdeciding
p2378
I409
sVmotivation
p2379
I1789
sVmodeled
p2380
I1569
sVoutstanding
p2381
I1163
sVviterbi
p2382
I1729
sValongside
p2383
I875
sVwell-developed
p2384
I826
sValike
p2385
I1371
sVsentences
p2386
I3383
sVsensorimotor
p2387
I1670
sVorgans
p2388
I1101
sVlie
p2389
I2304
sVwilson
p2390
I204
sVconstructions
p2391
I2741
sVbuilt
p2392
I1221
sVdepending
p2393
I3671
sVsuperior
p2394
I3502
sVschackner
p2395
I3806
sVconforming
p2396
I2170
sValso
p2397
I325
sVrecognizing
p2398
I2058
sVinternal
p2399
I1266
sVsquare
p2400
I3349
sVbuild
p2401
I251
sVanalogy
p2402
I3216
sVbywhere
p2403
I3424
sVfinding
p2404
I983
sVanalogs
p2405
I1374
sVnon-arbitrary
p2406
I3792
sVplay
p2407
I1287
sVtowards
p2408
I192
sVquote
p2409
I1106
sVeggs
p2410
I3371
sVinconvenience
p2411
I1948
sVreach
p2412
I1343
sVreact
p2413
I2056
sVmost
p2414
I281
sVvirus
p2415
I3209
sVexperiences
p2416
I3681
sVplan
p2417
I650
sVsignificant
p2418
I2069
sVposition
p2419
I2360
sVnothing
p2420
I2040
sVcontest
p2421
I2917
sVprobabilistic
p2422
I145
sVstands
p2423
I3461
sVbasal
p2424
I3516
sVunderstands
p2425
I1717
sVconstructed
p2426
I3429
sVgrams
p2427
I1859
sVclear
p2428
I378
sVsometimes
p2429
I1887
sVcover
p2430
I889
sVunreasonable
p2431
I3648
sVtraditional
p2432
I2430
sVelucidating
p2433
I2205
sVpart
p2434
I635
sVreflections
p2435
I3164
sVnonspecific
p2436
I1280
sVhindrance
p2437
I3856
sVweigh
p2438
I2963
sVnoun-verb
p2439
I128
sVorganism
p2440
I1100
sVdifferentiate
p2441
I3674
sVsector
p2442
I1044
sVsimilarity/generalization
p2443
I1681
sVcontrastive
p2444
I3225
sVparticularly
p2445
I1599
sVphenomenon
p2446
I644
sVaffairs
p2447
I3859
sVwonkiness
p2448
I3212
sVsession
p2449
I1047
sVrelation
p2450
I928
sValgorithms
p2451
I3260
sVexchangeability
p2452
I1479
sVfind
p2453
I1492
sVfaces
p2454
I3769
sVcompletion
p2455
I3223
sVreminiscent
p2456
I3078
sVcausality
p2457
I884
sVjustice
p2458
I2299
sVless
p2459
I1863
sVdistributed
p2460
I3594
sVself-other
p2461
I3499
sVfailed
p2462
I2238
sVformulation
p2463
I1773
sVpretty
p2464
I2558
sVfactor
p2465
I2232
sVcircle
p2466
I2652
sVmorgenstern
p2467
I2319
sVgeneralizations
p2468
I2760
sVhis
p2469
I1335
sVdominant
p2470
I2749
sVgains
p2471
I271
sVnotation
p2472
I1586
sVpermission
p2473
I1167
sVspurious
p2474
I938
sVbeams
p2475
I1218
sVunquantifiable
p2476
I1318
sVtheoretician
p2477
I238
sVdecomposing
p2478
I2747
sVsynchronization
p2479
I294
sVvaluable
p2480
I1060
sVclosely
p2481
I2161
sVcasino
p2482
I2155
sVduring
p2483
I975
sVimitating
p2484
I3777
sVhim
p2485
I504
sVcontextual
p2486
I29
sVenemy
p2487
I445
sVresolve
p2488
I1646
sVimmerse
p2489
I1261
sVlightened
p2490
I3696
sVgenerally
p2491
I1506
sVtimeless
p2492
I791
sVfactorization
p2493
I2235
sVinvestigate
p2494
I2297
sVunderlying
p2495
I942
sVcommon
p2496
I383
sVinefficient
p2497
I3780
sVactivity
p2498
I317
sVsustainable
p2499
I1053
sVx
I1826
sVforster
p2500
I477
sVguessed
p2501
I3687
sVcrl
p2502
I855
sVfledged
p2503
I2925
sVredefine
p2504
I3459
sVset
p2505
I734
sVart
p2506
I3753
sVlearnable
p2507
I867
sVintelligence
p2508
I1094
sVsensorymotor
p2509
I3083
sVtended
p2510
I2073
sVplausible
p2511
I3610
sVculture
p2512
I403
sVsee
p2513
I159
sVindividual
p2514
I2283
sVsec
p2515
I2577
sVmediators
p2516
I579
sVclose
p2517
I3524
sVtheoretic
p2518
I1707
sVpaul
p2519
I3609
sVdefinitely
p2520
I3320
sVrepairs
p2521
I153
sVlearns
p2522
I3695
sVdesires
p2523
I2194
sVexpert
p2524
I458
sVpictures
p2525
I2050
sVcurrently
p2526
I1442
sVplease
p2527
I1169
sVcoordination
p2528
I34
sVmagnified
p2529
I3061
sVverbs
p2530
I199
sVvarious
p2531
I2441
sVgraph/network
p2532
I3233
sVprobably
p2533
I1626
sVconditions
p2534
I2738
sVknowing
p2535
I543
sVgenes
p2536
I3540
sVrecently
p2537
I2689
sVcreating
p2538
I400
sVmissing
p2539
I586
sVinitially
p2540
I2287
sVdividends
p2541
I424
sVattention
p2542
I248
sVpropositionally
p2543
I3111
sVincommensurate
p2544
I3053
sV][i
p2545
I2106
sVgenders
p2546
I3398
sVdistinguish
p2547
I47
sVremaining
p2548
I2894
sVperfection
p2549
I2936
sVarcheologists
p2550
I3751
sVboth
p2551
I363
sVc
I959
sVfeeling
p2552
I2670
sVlast
p2553
I1005
sVreverse
p2554
I3409
sVrestaurant
p2555
I2993
sVcooption
p2556
I3527
sVthom
p2557
I3903
sVconnection
p2558
I3041
sVimproves
p2559
I2277
sVturrets
p2560
I3809
sVcontext
p2561
I28
sVfocused
p2562
I1856
sVfactorable
p2563
I1245
sVwhole
p2564
I1907
sVfinds
p2565
I270
sVexperimental
p2566
I1483
sVload
p2567
I3606
sVelaborating
p2568
I3046
sVpoint
p2569
I655
sVreasons
p2570
I927
sVcorresponds
p2571
I1761
sVcommunity
p2572
I970
sVcoincidence
p2573
I2163
sVsimply
p2574
I936
sVlikes
p2575
I558
sVchurch
p2576
I3170
sVindefinite
p2577
I91
sVfactors
p2578
I2237
sVdescribed
p2579
I1231
sVraise
p2580
I1172
sVbertrand
p2581
I250
sVcapacity
p2582
I3585
sVcreate
p2583
I219
sVdue
p2584
I52
sVstrategy
p2585
I3385
sVinstantiations
p2586
I1535
sVdescribes
p2587
I3044
sVon-at
p2588
I3336
sVamnesic
p2589
I3088
sVph
p2590
I642
sVfogginess
p2591
I1496
sVfirm
p2592
I2506
sVgenerating
p2593
I484
sVsuspicious
p2594
I2417
sVtop-down
p2595
I796
sVboy
p2596
I1747
sVkiraly
p2597
I3784
sVdunham
p2598
I3767
sVgas
p2599
I483
sVprecision
p2600
I3456
sVelse
p2601
I441
sVneumann
p2602
I2330
sVwhatever
p2603
I2954
sVunderstand
p2604
I807
sVsystematic
p2605
I3021
sVoxford@t-aid
p2606
I1029
sVextracted
p2607
I3436
sVbarnados
p2608
I955
sVmisunderstands
p2609
I2776
sVlook
p2610
I2631
sVraw
p2611
I2055
sVsolid
p2612
I2587
sVexpanded
p2613
I1482
sVempirical
p2614
I2207
sVpace
p2615
I2552
sVwhile
p2616
I1346
sVought
p2617
I920
sVbehavior
p2618
I1219
sVleaning
p2619
I1555
sVproperly
p2620
I2560
sVguide
p2621
I1334
sVengineers
p2622
I2013
sVswim
p2623
I2605
sVselected
p2624
I3823
sVtall
p2625
I1815
sVhoping
p2626
I2028
sVmeeting
p2627
I2988
sVvon
p2628
I2447
sVbinding
p2629
I3582
sV[he
p2630
I2088
sVrepeating
p2631
I3381
sVencountered
p2632
I1902
sVdecoration
p2633
I3763
sVreads
p2634
I700
sVitself
p2635
I1270
sVready
p2636
I701
sVzevin
p2637
I3508
sVequivalencies
p2638
I2215
sVchase
p2639
I2477
sVnon-communicative
p2640
I3702
sVbarner
p2641
I1746
sVslab
p2642
I3733
sVelevated
p2643
I2665
sVshorter
p2644
I3153
sVrules
p2645
I1175
sVdiscourse
p2646
I46
sVvisuo-spatial
p2647
I819
sVemphasize
p2648
I1469
sVpeoples
p2649
I1604
sVmaintaining/improving
p2650
I2538
sVcomposition
p2651
I3427
sVunderspecified
p2652
I2644
sVhigher
p2653
I2265
sVdevelopment
p2654
I40
sVrule-derived
p2655
I2788
sVliterature
p2656
I561
sVtemporary
p2657
I1192
sVlatency
p2658
I3605
sVgeneralizes
p2659
I902
sVholidays
p2660
I2519
sVusually
p2661
I2618
sVmoment
p2662
I1868
sVlevels
p2663
I2675
sVuses
p2664
I198
sVuser
p2665
I1893
sVnouns
p2666
I129
sVaggregate
p2667
I2997
sVrobust
p2668
I1652
sVplugs
p2669
I3843
sVrecent
p2670
I702
sVgestures
p2671
I73
sVlower
p2672
I2536
sVtask
p2673
I297
sVtheory-of-mind
p2674
I1344
sVolder
p2675
I2682
sVanalysis
p2676
I330
sVobviously
p2677
I2549
sVperson
p2678
I285
sVmachinery
p2679
I1096
sVconsistency
p2680
I1912
sVy
I1828
sVorganization
p2681
I625
sVcomprise
p2682
I388
sVdistances
p2683
I422
sVabilities
p2684
I1983
sVunseen
p2685
I3572
sVprecedence
p2686
I3341
sVgerund
p2687
I70
sVsound
p2688
I2792
sVnetworks
p2689
I3493
sVshape
p2690
I736
sVinactive
p2691
I2673
sVtennis
p2692
I3386
sVplagued
p2693
I3641
sVquestions
p2694
I693
sVusing
p2695
I1725
sVinference
p2696
I1263
sValternative
p2697
I1373
sVsummaries
p2698
I764
sValignment
p2699
I874
sVhypothesizes
p2700
I85
sVdiscipline
p2701
I2808
sVtables
p2702
I1189
sVaccepted
p2703
I3308
sVconclusions
p2704
I2167
sVinformal
p2705
I521
sVadvisers
p2706
I3259
sValternate
p2707
I2126
sVguaranteed
p2708
I3440
sVempirically
p2709
I2208
sVco-occur
p2710
I3659
sVsignals
p2711
I934
sVcue
p2712
I2746
sVparents
p2713
I3069
sVtestimonies
p2714
I3157
sVrelevance
p2715
I1300
sVinput
p2716
I526
sVganglia
p2717
I3538
sVeaster
p2718
I2489
sVbrainstorm
p2719
I364
sVgeneralized
p2720
I1505
sVassociations
p2721
I1384
sVmotivating
p2722
I1278
sVamended
p2723
I3629
sVconformed
p2724
I2169
sVevaluate
p2725
I450
sVshowing
p2726
I741
sVaggregation
p2727
I2998
sVjudgement
p2728
I3603
sVmatters
p2729
I2633
sVgame
p2730
I64
sVblackjack
p2731
I2148
sVemergence
p2732
I2707
sVintersubject
p2733
I3485
sV%
I2454
sVprojects
p2734
I681
sVhelpful
p2735
I501
sVskeptical
p2736
I2718
sVimposed
p2737
I2273
sVlost
p2738
I110
sVcogs
p2739
I379
sVfollows
p2740
I3635
sVsignal
p2741
I932
sVcapitals
p2742
I2649
sVignorance
p2743
I2764
sVrestroom
p2744
I3382
sVshapes
p2745
I2067
sVcollect
p2746
I1128
sVcontinue
p2747
I1229
sVyields
p2748
I209
sVtranslated
p2749
I3464
sVexplainable
p2750
I1484
sVessential
p2751
I448
sVterminology
p2752
I1890
sVtheory/model
p2753
I2424
sVmathematical
p2754
I2311
sVlombrozo
p2755
I2835
sVoften
p2756
I1281
sVabsolutely
p2757
I1984
sVb-
p2758
I3423
sVcreation
p2759
I3891
sVsome
p2760
I172
sVback
p2761
I2464
sVprototyping
p2762
I688
sVunderstood
p2763
I943
sVexperienced
p2764
I2668
sVexamples
p2765
I456
sVmirror
p2766
I1566
sVourselves
p2767
I1286
sVgradually
p2768
I2256
sVand/or
p2769
I2131
sVdescribing
p2770
I3271
sVaffects
p2771
I321
sVdecision
p2772
I1446
sVproficient
p2773
I2784
sVanns
p2774
I3089
sVexceeding
p2775
I1090
sVper
p2776
I2553
sVreligion
p2777
I3564
sVkertz
p2778
I2630
sVpronounces
p2779
I3110
sVpre-activity
p2780
I2684
sVfragments
p2781
I2985
sVsociality
p2782
I3565
sVminimal
p2783
I2890
sVeither
p2784
I1467
sVimposes
p2785
I2274
sVmeasures
p2786
I3402
sVrun
p2787
I1656
sVtalmyian
p2788
I181
sVprocessing
p2789
I675
sVinstantiation
p2790
I2289
sVincompletely
p2791
I1526
sVstep
p2792
I1697
sVnowhere
p2793
I1162
sVlasts
p2794
I3546
sVbecome
p2795
I850
sVpropositional
p2796
I2939
sVabroad
p2797
I949
sVintentional
p2798
I3781
sVshine
p2799
I739
sVfaith
p2800
I900
sVgoods
p2801
I224
sVcimpian
p2802
I3171
sVvolunteering
p2803
I1063
sVchomsky
p2804
I1082
sVfiring
p2805
I3599
sVsimulation
p2806
I1684
sVunintentional
p2807
I3811
sVrange
p2808
I1039
sVback-infer
p2809
I1387
sVwonders
p2810
I3626
sVblock
p2811
I2149
sVmesquitos
p2812
I3189
sVrepair
p2813
I152
sVcomputational
p2814
I1425
sVunnoticed
p2815
I1721
sVconflated
p2816
I3224
sVinto
p2817
I98
sVwithin
p2818
I205
sVcancelable
p2819
I3124
sV[is
p2820
I2093
sVappropriate
p2821
I335
sVbecause
p2822
I14
sVgentner
p2823
I3231
sVprimarily
p2824
I3718
sVdetectable
p2825
I3854
sVcriticisms
p2826
I3871
sVstatistics
p2827
I753
sVinnate
p2828
I3055
sVconceivably
p2829
I1085
sVmeasured
p2830
I117
sVplacing
p2831
I2355
sVquestion
p2832
I148
sVhandles
p2833
I1515
sVspecifically
p2834
I1049
sVdoubt
p2835
I3369
sV//oxfordhub
p2836
I947
sVsuit
p2837
I2604
sVforward
p2838
I478
sVanalyze
p2839
I1376
sVopponent
p2840
I1592
sVfragmented
p2841
I1498
sVhimself
p2842
I2267
sVcriteria
p2843
I3160
sVmechanistic
p2844
I1562
sVgestural
p2845
I71
sVlink
p2846
I1009
sVbeans
p2847
I1393
sVupright
p2848
I811
sVline
p2849
I559
sVscales
p2850
I3202
sVinfo
p2851
I520
sVintuitive
p2852
I1548
sVsounds
p2853
I2642
sVup
p2854
I810
sVus
p2855
I812
sVprep
p2856
I3799
sVinterlocutors
p2857
I2765
sVexploration
p2858
I460
sVverification
p2859
I2442
sVuk
p2860
I1058
sVbehavioral
p2861
I3518
sVcontinuously
p2862
I2177
sVweaken
p2863
I3746
sVsimilar
p2864
I169
sVprofessor
p2865
I678
sVwarm-blooded
p2866
I3574
sVspike
p2867
I3623
sVintersubjective
p2868
I1543
sVassociated
p2869
I343
sVreconcile
p2870
I1641
sVdefined
p2871
I1448
sVarticulating
p2872
I341
sVstuffs
p2873
I760
sVinfluence
p2874
I1531
sVdoesn
p2875
I2829
sVpackage
p2876
I3840
sVproper
p2877
I3072
sVsingle
p2878
I1304
sVdiverse
p2879
I1460
sVmetric
p2880
I3241
sVmarbles
p2881
I2632
sVabsurdum
p2882
I1735
sVwestnile
p2883
I3211
sVparadox
p2884
I1794
sVscott-phillips
p2885
I3900
sVamounts
p2886
I3419
sVpriors
p2887
I1625
sVthinks
p2888
I2425
sVpreventing
p2889
I3717
sVapplication
p2890
I953
sVpriori
p2891
I2364
sVklemmer
p2892
I542
sVdepartment
p2893
I412
sVbrain-in-a-vat
p2894
I2704
sVsuite
p2895
I2700
sVnice
p2896
I1581
sVexplaining
p2897
I2020
sVecosystem
p2898
I3279
sVneurodynamic
p2899
I1577
sVusers
p2900
I2975
sVcalculating
p2901
I3426
sVbackbone
p2902
I1388
sVproblems
p2903
I674
sVrobots
p2904
I2388
sVmeaning
p2905
I578
sVhelplessness
p2906
I3542
sVgraphically
p2907
I2258
sVformal
p2908
I1148
sVsides
p2909
I3344
sVstructure
p2910
I755
sVago
p2911
I3511
sVindependently
p2912
I1528
sVcorrelated
p2913
I260
sVe
I431
sVpnas
p2914
I3611
sValgorithm
p2915
I3120
sVpractically
p2916
I660
sVpedestrians
p2917
I3291
sVrequired
p2918
I715
sVhasson
p2919
I1516
sVtradeoff
p2920
I2849
sVdepth
p2921
I413
sVcorrelates
p2922
I396
sVcame
p2923
I1839
sVbroad
p2924
I2824
sVfar
p2925
I1489
sVrequires
p2926
I1645
sVhaving
p2927
I1919
sVonce
p2928
I623
sVessay
p2929
I1976
sVbays
p2930
I3581
sVcode
p2931
I1127
sVpartial
p2932
I3454
sVillustrates
p2933
I1522
sVscratch
p2934
I2816
sVovergeneralize
p2935
I3796
sVephemeral
p2936
I2212
sVresults
p2937
I720
sVexisting
p2938
I1480
sVillustrated
p2939
I2930
sVefficient
p2940
I3830
sVbroader
p2941
I1403
sVground-able
p2942
I3686
sVgo
p2943
I489
sVissues
p2944
I536
sVsimon
p2945
I872
sVbaron
p2946
I3757
sVconcerned
p2947
I1086
sVdeterministic
p2948
I3433
sVleap
p2949
I3785
sVsend
p2950
I1180
sVlanguages
p2951
I866
sVhelps
p2952
I502
sVbreach
p2953
I1123
sVinclude
p2954
I518
sV[what
p2955
I2105
sVdramatically
p2956
I1465
sVresources
p2957
I717
sVoverlaps
p2958
I1595
sVconfirmation
p2959
I27
sVpresently
p2960
I2362
sVimplicitly
p2961
I1778
sVcontinues
p2962
I2176
sVwishes
p2963
I2081
sVfacebook
p2964
I981
sVtelling
p2965
I2421
sVsyntax
p2966
I2994
sVcontinued
p2967
I1436
sVnon-profit
p2968
I1019
sVcategories
p2969
I1407
sVentire
p2970
I894
sVmodulator
p2971
I3551
sVtransmission
p2972
I2949
sVfur
p2973
I3183
sVbutton
p2974
I367
sVprototypes
p2975
I687
sVtry
p2976
I801
sVrace
p2977
I694
sVavoiding
p2978
I3868
sVostention
p2979
I3897
sVmultiple-instance
p2980
I597
sVnoted
p2981
I1587
sVconfigurations
p2982
I3265
sVgender
p2983
I3397
sVsensation
p2984
I2841
sVmatrices
p2985
I3861
sVcrook
p2986
I1762
sVimply
p2987
I3235
sVsubtle
p2988
I2797
sVmanipulating
p2989
I2037
sVdefines
p2990
I3319
sVcarlo
p2991
I2825
sVfolk
p2992
I3050
sVscientific
p2993
I2944
sVlists
p2994
I3376
sVplays
p2995
I2358
sVopaque
p2996
I3495
sVgiving
p2997
I1508
sVinteractional
p2998
I3543
sVsynergetic
p2999
I768
sVanalogously
p3000
I3578
sVexpressed
p3001
I2223
sVpractices
p3002
I1618
sVaccess
p3003
I1831
sVwaiting
p3004
I822
sVexperiment
p3005
I60
sVdelving
p3006
I2919
sVrepreseantational
p3007
I710
sVbody
p3008
I361
sVled
p3009
I1007
sVdegree
p3010
I1449
sVtransmitting
p3011
I2951
sVpushing
p3012
I2561
sVjointly
p3013
I1551
sVexplore
p3014
I223
sVobjects
p3015
I617
sVlet
p3016
I552
sVothers
p3017
I628
sVconsideration
p3018
I2172
sVgenerally-accepted
p3019
I2253
sVimplicit
p3020
I90
sVseung
p3021
I3620
sVgreat
p3022
I991
sVreceive
p3023
I3846
sVinvolved
p3024
I1001
sVlarger
p3025
I548
sVshades
p3026
I2945
sVputnam
p3027
I3877
sVrdg
p3028
I1878
sVgarrod
p3029
I3684
sVproducts
p3030
I2365
sVconstitutive
p3031
I2740
sVmenu
p3032
I2543
sVproof
p3033
I2368
sVmakes
p3034
I570
sVinvolves
p3035
I1269
sVexaminations
p3036
I1142
sVmeltzoff
p3037
I1563
sVclark
p3038
I1415
sVheart
p3039
I2517
sVinterperetation
p3040
I1780
sVperceivable
p3041
I2959
sVdecrease
p3042
I37
sVnames
p3043
I3064
sVmotor
p3044
I595
sVduck
p3045
I3131
sVapply
p3046
I334
sVtools
p3047
I1711
sVcausal
p3048
I883
sVmanipulate
p3049
I571
sVlime
p3050
I3187
sVgraph-theoretic
p3051
I3232
sVuse
p3052
I813
sVmetaphor
p3053
I3403
sVstream
p3054
I2845
sV&
I0
sVremains
p3055
I3724
sVcontext-free
p3056
I2982
sVphysics
p3057
I3712
sVfrog
p3058
I2022
sVnext
p3059
I1580
sVfew
p3060
I467
sVpay-offs
p3061
I2349
sVcamera
p3062
I2871
sVexamination
p3063
I1141
sVreciprocity
p3064
I232
sVtimetable
p3065
I1194
sVthemselves
p3066
I1312
sVsimpler
p3067
I1682
sVhistorically
p3068
I3284
sVreflects
p3069
I3804
sVsort
p3070
I2070
sVpencil
p3071
I1165
sVformally
p3072
I2246
sVhard/
p3073
I2514
sVstarted
p3074
I2408
sVbecomes
p3075
I353
sVoccurred
p3076
I619
sVcooperate
p3077
I3364
sVmeant
p3078
I3698
sVtrain
p3079
I2615
sVprizes
p3080
I1170
sVbaby
p3081
I3032
sVlifestyle
p3082
I557
sVfacie
p3083
I3437
sVcharity
p3084
I964
sVcustomer
p3085
I1443
sV-foot
p3086
I1734
sVaccount
p3087
I1206
sVanimals
p3088
I1987
sVaugment
p3089
I345
sVintegrating
p3090
I2856
sVthis
p3091
I188
sVthir
p3092
I3086
sVchallenge
p3093
I1996
sVsounded
p3094
I3566
sVprompts
p3095
I683
sVcarrot
p3096
I3125
sVobvious
p3097
I3335
sVmeet
p3098
I912
sVdrops
p3099
I2488
sVanthropological
p3100
I213
sVdistractions
p3101
I423
sVsnacks
p3102
I745
sVprocess
p3103
I146
sVpurposes
p3104
I3458
sVpieces
p3105
I2555
sVhigh
p3106
I503
sVeffectively
p3107
I2830
sVassumptions
p3108
I344
sVsomething
p3109
I173
sVintuitions
p3110
I1921
sVschemas
p3111
I727
sVsit
p3112
I1182
sVholds
p3113
I3441
sVnegation
p3114
I3333
sVunquestionable
p3115
I3647
sVdependent
p3116
I1329
sVvaries
p3117
I2910
sVnumerous
p3118
I3334
sVanimal
p3119
I1075
sVinstead
p3120
I528
sVnative
p3121
I3700
sVintelligent
p3122
I2030
sVcircular
p3123
I1413
sVexpress
p3124
I2222
sVblocks
p3125
I2150
sVattend
p3126
I1118
sVsingular
p3127
I1305
sVimmersed
p3128
I514
sVphilosophy
p3129
I645
sVfactored
p3130
I2233
sVfluid
p3131
I2243
sVdomesticating
p3132
I3277
sVfits
p3133
I472
sVcommunicator
p3134
I1421
sVengineering
p3135
I3816
sVefficiently
p3136
I438
sVambiguous
p3137
I1210
sVamenable
p3138
I2728
sVpurely
p3139
I2373
sVlight
p3140
I911
sVarduous
p3141
I1989
sVcorrespond
p3142
I2182
sVgesturing
p3143
I74
sVthalamus
p3144
I778
sVallow
p3145
I323
sVlactate
p3146
I2528
sVdiads
p3147
I262
sVdrunken
p3148
I3180
sV%/
p3149
I2455
sVevolutionary
p3150
I2016
sVproducer
p3151
I1874
sVinterlocutor
p3152
I1540
sVmove
p3153
I2320
sVinterpreted
p3154
I1951
sVproduced
p3155
I1342
sVwhilst
p3156
I1068
sVpost-graduation
p3157
I1033
sVlooks
p3158
I1865
sVcircumscribed
p3159
I3359
sVhorns
p3160
I1258
sVmentioned
p3161
I119
sVimitate
p3162
I3776
sVperfect
p3163
I640
sVlinguistics
p3164
I3489
sVla
p3165
I3059
sVchosen
p3166
I3759
sVsucceceptable
p3167
I2846
sVll
p3168
I2532
sVhypothesize
p3169
I3774
sVwinning
p3170
I831
sVanaerobic
p3171
I2461
sVworld-states
p3172
I3467
sVtenenbaum
p3173
I1706
sVchoose
p3174
I377
sVcovered
p3175
I1439
sVholiday
p3176
I2518
sVdefining
p3177
I3829
sVgreater
p3178
I494
sVdan
p3179
I1763
sVpractice
p3180
I661
sVfunctional
p3181
I3772
sVnewman
p3182
I3106
sVmention
p3183
I2314
sVshape/generalization
p3184
I3730
sVadulthood
p3185
I3748
sVoptimal
p3186
I1593
sVday
p3187
I408
sVpreschool
p3188
I3800
sVapplicants
p3189
I952
sVworlds
p3190
I2724
sVfebruary
p3191
I1144
sVspeaks
p3192
I3735
sVverifying
p3193
I3745
sVuniversity
p3194
I1203
sVsufficiently
p3195
I1700
sVslide
p3196
I171
sV[the
p3197
I2102
sVtruth
p3198
I2818
sVreferences
p3199
I705
sVconstraints
p3200
I394
sVsubset
p3201
I2413
sVrecommend
p3202
I2567
sVuntenable
p3203
I3573
sVtuples
p3204
I2801
sVdoing
p3205
I425
sVparties
p3206
I1960
sVprogrammed
p3207
I2052
sVproduct
p3208
I676
sVrelated
p3209
I150
sVconstitute
p3210
I3664
sVbooks
p3211
I1122
sVfried
p3212
I3771
sVmeasure
p3213
I3188
sVseparating
p3214
I2395
sVour
p3215
I629
sVtransitions
p3216
I2432
sVsatisfied
p3217
I3725
sVspecial
p3218
I1306
sVout
p3219
I630
sVcategory
p3220
I3036
sVrespects
p3221
I1107
sVconceptually
p3222
I3852
sVfundamentally
p3223
I1252
sVstructuring
p3224
I3299
sVdefend
p3225
I2918
sVbergen
p3226
I357
sVstrokes
p3227
I2600
sVposteriori
p3228
I3714
sVsperber
p3229
I1307
sVrem
p3230
I3879
sVcause
p3231
I885
sVmath
p3232
I575
sVapproached
p3233
I1988
sVinteractions
p3234
I274
sVfrank
p3235
I1499
sVschachner
p3236
I1662
sVwithdrawal
p3237
I1972
sVgreedy
p3238
I3137
sVclarify
p3239
I2158
sVcompletely
p3240
I384
sVconfirmations
p3241
I1846
sVqud
p3242
I3197
sVadvisor
p3243
I320
sVconflicts
p3244
I1427
sVphilip
p3245
I3558
sVlikelihood
p3246
I2306
sVtenant
p3247
I183
sVimprecision
p3248
I3443
sVinteraction
p3249
I273
sVg
I1150
sVphrases
p3250
I1610
sVcould
p3251
I35
sVkeep
p3252
I538
sVconversation
p3253
I33
sVlength
p3254
I109
sVexplored
p3255
I1242
sVderivations
p3256
I3529
sVdistinctions
p3257
I2010
sVretain
p3258
I2692
sVinterconnections
p3259
I3286
sVrepeats
p3260
I1881
sVfacilitate
p3261
I268
sVcastling
p3262
I2156
sVas=c
p3263
I3422
sVpowerful
p3264
I230
sVpolyadic
p3265
I286
sVowned
p3266
I3797
sVecho
p3267
I1853
sVhorsewood
p3268
I1947
sVoccurrences
p3269
I2041
sVproposing
p3270
I3642
sVrepresentations
p3271
I712
sVprecisely
p3272
I1619
sVquality
p3273
I288
sVsalient
p3274
I3079
sVpublication
p3275
I690
sVstrict
p3276
I1814
sVordering
p3277
I2344
sVguys
p3278
I2511
sVachieved
p3279
I2116
sVgrip
p3280
I3685
sVsystem
p3281
I295
sVrelations
p3282
I929
sVpriority
p3283
I2559
sVtheir
p3284
I780
sVattack
p3285
I1990
sVintermediate
p3286
I3832
sVco-generalize
p3287
I3658
sVcollaboratively
p3288
I2855
sVperfectly
p3289
I2716
sVfinal
p3290
I1145
sVanalytic-synthetic
p3291
I1740
sVinterests
p3292
I1950
sVreadiness
p3293
I2688
sVwavelength
p3294
I3507
sVexplanation
p3295
I2221
sVexactly
p3296
I860
sVrsa
p3297
I3152
sVveridical
p3298
I2953
sVslides
p3299
I743
sVenvironmental
p3300
I1472
sVvouch
p3301
I820
sVregards
p3302
I1925
sVunreconcillable
p3303
I1723
sVvideogames
p3304
I3388
sVfuzzy
p3305
I3537
sVstate-transition
p3306
I3849
sVhaven
p3307
I2516
sVdynamical
p3308
I2967
sVepochs
p3309
I2969
sVultimatum
p3310
I240
sVben
p3311
I356
sVisolation
p3312
I906
sVwell-established
p3313
I2448
sVdiscriminating
p3314
I3592
sVpatients
p3315
I3108
sVstate-response
p3316
I1693
sVembody
p3317
I443
sValignability
p3318
I3213
sVdistinguished
p3319
I2011
sVresult
p3320
I718
sVbehaviors
p3321
I2731
sVfunction
p3322
I2249
sVenforced
p3323
I1136
sVfalse
p3324
I2669
sVlines
p3325
I3873
sVcohen
p3326
I3126
sVrobot
p3327
I2864
sVcorrupt
p3328
I2807
sVfactorizations
p3329
I2236
sVunlikely
p3330
I2436
sVhave
p3331
I80
sVdisjoint
p3332
I420
sVexhibit
p3333
I3634
sVconstrained
p3334
I3761
sVapparently
p3335
I1741
sVclearly
p3336
I1126
sVviewed
p3337
I1894
sVmisaligned
p3338
I3863
sVdepict
p3339
I2191
sVminimally
p3340
I2315
sVsilbert
p3341
I3500
sVmin
p3342
I2544
sVmarginalizing
p3343
I574
sVable
p3344
I313
sVmechanism
p3345
I118
sVinstance
p3346
I95
sVincorporating
p3347
I2281
sVwhich
p3348
I829
sVsufficiency
p3349
I2847
sVbiology
p3350
I3521
sVreproducing
p3351
I3822
sVaccuracy
p3352
I3
sVworldwide
p3353
I1070
sVhq
p3354
I993
sVunless
p3355
I196
sVethnographic
p3356
I3321
sVcollaboration
p3357
I255
sVwho
p3358
I203
sVintentions
p3359
I2291
sVconnected
p3360
I3266
sVamongst
p3361
I328
sVpreliminary
p3362
I1621
sVdelve
p3363
I1450
sVintrinsic
p3364
I3400
sVwhy
p3365
I306
sVfair
p3366
I2240
sVprobable
p3367
I3497
sVso-called
p3368
I3252
sVplacement
p3369
I1031
sVconsequences
p3370
I3428
sVpresuppose
p3371
I2363
sVensues
p3372
I3633
sVstronger
p3373
I3020
sVuri
p3374
I1724
sVreconcilable
p3375
I1640
sVlowered
p3376
I3401
sVgesture
p3377
I72
sVmechanical
p3378
I3789
sVconstrain
p3379
I2174
sVfact
p3380
I1091
sVgain
p3381
I986
sVaffair
p3382
I1370
sVselection
p3383
I1045
sVlocation
p3384
I3786
sVperceptions
p3385
I3798
sVchances
p3386
I2476
sVtext
p3387
I1891
sVagreed
p3388
I2121
sVindoor
p3389
I3690
sVanyway
p3390
I2462
sVbring
p3391
I879
sVcsibra
p3392
I3762
sVplanning
p3393
I651
sVpropagates
p3394
I3560
sV=c
p3395
I3414
sVutter
p3396
I2962
sVchicken
p3397
I1411
sVhigh-level
p3398
I2763
sVdebate
p3399
I1445
sVsymmetric
p3400
I1702
sVexercise
p3401
I2019
sVcandidacy
p3402
I369
sVbased
p3403
I351
sVknowledge
p3404
I544
sVtire
p3405
I3255
sVjay
p3406
I3100
sVwinner
p3407
I3027
sVspecified
p3408
I2406
sVshould
p3409
I167
sVreactive
p3410
I2375
sVmetapsychology
p3411
I3892
sVwon
p3412
I2621
sVlassiter
p3413
I1784
sVambiguity
p3414
I1209
sVgradual
p3415
I3136
sVemployed
p3416
I3372
sVpartially
p3417
I3841
sVlocal
p3418
I1011
sVhope
p3419
I1520
sVequilibrium
p3420
I3132
sVregularly
p3421
I1299
sVcube
p3422
I3317
sVhandle
p3423
I1774
sVmeans
p3424
I1277
sVlobe
p3425
I3101
sVfamiliar
p3426
I2755
sVhopefully
p3427
I1521
sVoverall
p3428
I2551
sVpearl
p3429
I3710
sVbear
p3430
I2145
sVlistener
p3431
I1557
sVbeam
p3432
I1217
sVones
p3433
I1872
sVlegitimate
p3434
I910
sVwords
p3435
I834
sVcoordinating
p3436
I1328
sVargues
p3437
I1078
sVinformation]/[cost]
p3438
I1265
sVareas
p3439
I3090
sVsymbols
p3440
I2947
sVevolution
p3441
I859
sVanalyzable
p3442
I2130
sVended
p3443
I2495
sVtolerance
p3444
I2612
sVdifferential
p3445
I3130
sVmetric-space
p3446
I3242
sVoptimally
p3447
I3608
sVstuff
p3448
I759
sVshe
p3449
I166
sVdangerous
p3450
I2657
sVincluding
p3451
I1524
sVgrab
p3452
I3051
sVfixed
p3453
I1494
sVgenerations
p3454
I69
sVview
p3455
I818
sVguessing
p3456
I78
sVrequirement
p3457
I3460
sVtemporarily
p3458
I3463
sVconstructing
p3459
I1431
sVpronoun
p3460
I2636
sVacquired
p3461
I2911
sVframe
p3462
I2248
sVcorrelations
p3463
I3666
sVhumans
p3464
I508
sVaccord
p3465
I2111
sVoperates
p3466
I2342
sVcomputer
p3467
I257
sVgenerational
p3468
I68
sVchecks
p3469
I2736
sVhippocampus
p3470
I3099
sVresponses
p3471
I1649
sVphases
p3472
I643
sVerror
p3473
I2923
sVinteracting
p3474
I529
sVattempting
p3475
I1326
sVpattern
p3476
I1603
sVtend
p3477
I1705
sVfavor
p3478
I1490
sVwritten
p3479
I841
sVdifficulties
p3480
I3394
sVclosed
p3481
I1911
sVprogress
p3482
I2366
sVneither
p3483
I1958
sVreliability
p3484
I3616
sVemail
p3485
I976
sVbought
p3486
I3219
sVcounterexample
p3487
I3365
sVends
p3488
I1769
sVsole
p3489
I3645
sVability
p3490
I1073
sVgeneralities
p3491
I3184
sVimportance
p3492
I1861
sVkripkian
p3493
I3058
sV[my
p3494
I2977
sVphysicist
p3495
I2049
sVefficiency
p3496
I2203
sVjob
p3497
I537
sVapes
p3498
I3885
sVhypothesis
p3499
I84
sVkey
p3500
I2300
sVprobing
p3501
I1627
sVapproval
p3502
I336
sVw
I2866
sVdistribution
p3503
I1766
sVdavid
p3504
I407
sVramscar
p3505
I1634
sVobservable
p3506
I1588
sVinterpretations
p3507
I1542
sVlimits
p3508
I2308
sVcareer
p3509
I961
sVtaking
p3510
I1704
sVgilbert
p3511
I2024
sVequal
p3512
I2213
sVminds
p3513
I1098
sVagree
p3514
I1895
sVetc
p3515
I449
sVstarts/race
p3516
I2596
sVpassing
p3517
I1600
sVtemporal
p3518
I3022
sVotherwise
p3519
I3451
sVstrongly
p3520
I2601
sVrelevant
p3521
I1964
sVco
p3522
I966
sVauthor
p3523
I3653
sVconclude
p3524
I3314
sVca
p3525
I368
sVundergraduates
p3526
I1202
sVstimulus-response
p3527
I2409
sVsubscribe
p3528
I761
sVmaximize
p3529
I3837
sVsequences
p3530
I165
sVtable
p3531
I1188
sVlabor
p3532
I2034
sVchromium
p3533
I3221
sVcv
p3534
I973
sVad
p3535
I1367
sVaddition
p3536
I5
sVtrajectory
p3537
I799
sVresponds
p3538
I2386
sVtutor
p3539
I1200
sVliteral
p3540
I1786
sVgaze
p3541
I65
sVtreat
p3542
I1315
sVcurtain
p3543
I3318
sVproposal
p3544
I685
sVbbs
p3545
I3471
sVtrinity
p3546
I1198
sVdefine
p3547
I411
sVmike
p3548
I3147
sVarises
p3549
I1743
sVgeneral
p3550
I66
sVc-
p3551
I3425
sVreceived
p3552
I3847
sVsufficient
p3553
I237
sVcoherence
p3554
I3003
sVpreforming
p3555
I664
sVfinished
p3556
I1146
sVconfers
p3557
I3392
sVours
p3558
I2345
sVimproved
p3559
I2276
sVrepetition
p3560
I154
sVpresent
p3561
I665
sVhomes
p3562
I3773
sVkehler
p3563
I2629
sVcouple
p3564
I3431
sVsplits
p3565
I2589
sVcontexts
p3566
I1759
sValign
p3567
I1325
sVnd
p3568
I2548
sVharder
p3569
I2515
sVvalue
p3570
I1820
sVpersists
p3571
I3070
sVframeworks
p3572
I1251
sVpost-hoc
p3573
I1616
sVmemorizing
p3574
I2775
sVwild
p3575
I3306
sVbalance
p3576
I2465
sVgrasped
p3577
I2927
sVnoticed
p3578
I3016
sValmost
p3579
I2124
sVneuron
p3580
I1579
sVthus
p3581
I2076
sVinterrelate
p3582
I2031
sVsurface
p3583
I3302
sVhelped
p3584
I2026
sVarrangements
p3585
I1117
sVoptimistic
p3586
I3193
sVdual
p3587
I2201
sVpartner
p3588
I1340
sVcapture
p3589
I253
sVdenial
p3590
I3367
sVperhaps
p3591
I921
sVbegan
p3592
I3517
sVbuddhist
p3593
I366
sVindistinguishable
p3594
I3831
sVinterdisciplinrity
p3595
I530
sVmember
p3596
I2676
sVregularities
p3597
I2862
sVparts
p3598
I637
sVspeaker
p3599
I174
sVdigital
p3600
I2920
sVlargest
p3601
I2301
sVunits
p3602
I1906
sVparty
p3603
I2346
sVnegotiate
p3604
I3289
sVgets
p3605
I486
sVinfer
p3606
I904
sVhammering
p3607
I79
sVsort-of
p3608
I1687
sVmaterial
p3609
I1955
sVhttp
p3610
I994
sVmatch-to-sample
p3611
I3240
sVdrink
p3612
I1135
sVupon
p3613
I1345
sVeffect
p3614
I53
sVstudent
p3615
I1050
sVdistinction
p3616
I1765
sVinfinite
p3617
I3444
sVfrequently
p3618
I3818
sVdayan
p3619
I3589
sVjudgment
p3620
I1782
sVcontribution
p3621
I2178
sVexpand
p3622
I1481
sVexpense
p3623
I3133
sVoff
p3624
I620
sVreflection
p3625
I707
sVneural
p3626
I606
sVi
I86
sVvariety
p3627
I1061
sVwell
p3628
I825
sVthought
p3629
I1709
sVpatterns
p3630
I639
sVbackpropagation
p3631
I3092
sVgoal-directed
p3632
I1509
sVgutted
p3633
I2510
sVsets
p3634
I1675
sVfirstly
p3635
I2507
sVcomparisons
p3636
I1751
sVsensing
p3637
I1669
sVdrawing
p3638
I3278
sVtaller
p3639
I1816
sVheavily
p3640
I1517
sVincreasingly
p3641
I1527
sVanalogical
p3642
I3215
sVaccurate
p3643
I2115
sVsources
p3644
I3346
sVstored
p3645
I1309
sVpredicts
p3646
I3071
sVadvertised
p3647
I950
sVyears
p3648
I2703
sVbiologist
p3649
I1992
sVrest
p3650
I2571
sVlauren
p3651
I3488
sVgriffith
p3652
I1151
sVlow-level
p3653
I565
sVrapid
p3654
I1962
sVdensity
p3655
I3270
sVsmith
p3656
I3155
sVpatricia
p3657
I3557
sV[sheep
p3658
I2100
sVdiscuss
p3659
I893
sVsimple
p3660
I935
sVadd
p3661
I1368
sVbook
p3662
I1121
sVextends
p3663
I3683
sValignable
p3664
I3214
sVcrack
p3665
I2481
sVsilently
p3666
I2817
sVkick
p3667
I1004
sVtests
p3668
I2611
sVdefinitive
p3669
I2828
sVchecking
p3670
I2735
sVdisfluent
p3671
I1852
sVpay-off
p3672
I3865
sVmanners
p3673
I2773
sVincreases
p3674
I2524
sVthresh-out
p3675
I1926
sVfive
p3676
I473
sVknow
p3677
I104
sVfacial
p3678
I62
sVmathematics
p3679
I2811
sVintersection
p3680
I3833
sVsnedeker
p3681
I1811
sVloss
p3682
I1977
sVlincoln
p3683
I2531
sVcross-checking
p3684
I2185
sVnecessary
p3685
I227
sVlike
p3686
I276
sVsuccess
p3687
I762
sVsizes
p3688
I2404
sVchairs
p3689
I1995
sVsofa
p3690
I2641
sVqualitative
p3691
I3292
sVextremely
p3692
I2231
sVgalantucci
p3693
I3134
sVunobservable
p3694
I1722
sV[discuss
p3695
I1348
sVcognition
p3696
I1417
sVagents
p3697
I1324
sVworks
p3698
I836
sVinexperienced
p3699
I2525
sVlends
p3700
I1272
sVaccessible
p3701
I2867
sVshed
p3702
I1677
sVdidn
p3703
I42
sVclassical
p3704
I2159
sVsequence
p3705
I164
sVpomdp
p3706
I2359
sVlinguistically
p3707
I3144
sVphenomena
p3708
I922
sVlibrary
p3709
I1158
sVpredicability
p3710
I3109
sVregularized
p3711
I1298
sVconvey
p3712
I2874
sVrecommendation
p3713
I1173
sV[play
p3714
I2097
sVproofs
p3715
I2369
sVundetected
p3716
I3742
sVeconometrics
p3717
I1944
sVrecognition
p3718
I1639
sVhappens
p3719
I2262
sVthroughout
p3720
I1055
sVcompetitor
p3721
I3040
sVlead
p3722
I3836
sVdemonstrates
p3723
I856
sVavoid
p3724
I347
sV[finish
p3725
I2087
sVphilosopher
p3726
I2047
sVinstantaneous
p3727
I3602
sVreferential
p3728
I2639
sVdoes
p3729
I50
sVontogenetic
p3730
I3894
sVassuming
p3731
I1386
sVforgiven
p3732
I2757
sVtransmitted
p3733
I2950
sVdiscriminative
p3734
I2196
sVspeak
p3735
I3734
sVchains
p3736
I21
sVdemonstrated
p3737
I1452
sVbenefitted
p3738
I2732
sVnoise
p3739
I3066
sVschedule
p3740
I1965
sVkotovsky
p3741
I3237
sVreal-world
p3742
I2377
sVclutter
p3743
I3039
sVpressure
p3744
I144
sVvariation
p3745
I241
sValthough
p3746
I1986
sVnationalities
p3747
I1017
sVanalyses
p3748
I1375
sVr
I2564
sVnoisy
p3749
I1583
sVgained
p3750
I3325
sVabout
p3751
I243
sVactual
p3752
I1365
sVcarried
p3753
I880
sVextension
p3754
I1332
sVgetting
p3755
I487
sVintroduces
p3756
I1546
sVdependence
p3757
I3476
sVdependency
p3758
I1453
sVcarries
p3759
I881
sVgyrus
p3760
I3482
sV[introduce
p3761
I2092
sVtoma
p3762
I3256
sVintroduced
p3763
I1545
sVtome
p3764
I794
sVindividually
p3765
I2284
sVequally
p3766
I1770
sVown
p3767
I1339
sVletters
p3768
I555
sVpreviously
p3769
I1623
sVnonrepresentationality
p3770
I2964
sVsharpness
p3771
I1807
sVcommitment
p3772
I968
sVarticulate
p3773
I340
sVassess
p3774
I2463
sVincluded
p3775
I2523
sVweather
p3776
I2080
sVcooccurence
p3777
I3005
sVcapable
p3778
I3035
sVnavigate
p3779
I3791
sVthis]
p3780
I2426
sVmere
p3781
I1097
sVbrilliantly
p3782
I2471
sVadditional
p3783
I2118
sVartifacts
p3784
I3754
sVtransfer
p3785
I1713
sVoutline
p3786
I3706
sVadversarial
p3787
I2119
sVawarded
p3788
I1119
sVintention
p3789
I905
sVprospects
p3790
I3196
sVindetectability
p3791
I3857
sVgene
p3792
I3539
sVdiscriminability
p3793
I2879
sVvat
p3794
I1927
sVnaturally
p3795
I1575
sVhz
p3796
I510
sVryle
p3797
I2063
sVdisambiguate
p3798
I1233
sVagrees
p3799
I3512
sVbut
p3800
I18
sVsubjective
p3801
I3300
sVprivilege
p3802
I669
sVrepeated
p3803
I2895
sVhierarchical
p3804
I2027
sVcontradictory
p3805
I3828
sVgoals
p3806
I1333
sVautomated
p3807
I1835
sVhighest
p3808
I1255
sVillustrative
p3809
I89
sVcoupling
p3810
I3475
sVmade
p3811
I568
sVcompute
p3812
I389
sVsorietes
p3813
I1813
sVplaces
p3814
I2556
sVwhether
p3815
I1824
sVwish
p3816
I1112
sVj
I3486
sVsmooth
p3817
I2405
sVparticle
p3818
I2837
sVsigned
p3819
I2696
sVformalized
p3820
I2758
sVrecord
p3821
I704
sVbelow
p3822
I956
sVcolaboration
p3823
I1843
sVlimit
p3824
I1864
sVentrainment
p3825
I55
sVinfants
p3826
I3054
sVdemonstrate
p3827
I1451
sVproblem
p3828
I673
sVpiece
p3829
I1611
sVminutes
p3830
I1159
sVbearing
p3831
I3310
sVbewitchment
p3832
I3390
sVintersects
p3833
I3834
sVrecognize
p3834
I703
sVuniversal
p3835
I3305
sVcontribute
p3836
I258
sVdialogue
p3837
I1850
sVpersistent
p3838
I2353
sVmultimodal
p3839
I282
sVelsi
p3840
I2626
sVmind-reading
p3841
I3332
sVrelates
p3842
I708
sVeducation
p3843
I1945
sVproceeds
p3844
I1292
sVworse
p3845
I3576
sVjesse
p3846
I1781
sVchurchland
p3847
I3523
sVfunctions
p3848
I1500
sVloud
p3849
I2888
sVincredible
p3850
I519
sVinformativeness
p3851
I3140
sVtrials
p3852
I3024
sVdetail
p3853
I1456
sVdeserved
p3854
I2485
sV-dan
p3855
I1733
sVonwards
p3856
I1282
sVdetails
p3857
I892
sVbranch
p3858
I957
sVincredibly
p3859
I2029
sVkelemen
p3860
I3783
sVpuzzlement
p3861
I1875
sVrepeat
p3862
I2570
sVkinds
p3863
I103
sVplate
p3864
I3149
sVstraightforwardness
p3865
I2904
sVinherently
p3866
I94
sVecological
p3867
I3530
sVdiscourses
p3868
I3675
sVpathways
p3869
I1602
sVadditionally
p3870
I1208
sVgap
p3871
I2710
sVfriends
p3872
I3182
sVsignalling
p3873
I3154
sVexposure
p3874
I3682
sVsearches
p3875
I729
sV[predicting
p3876
I2099
sVprevalent
p3877
I1622
sVstarting
p3878
I2594
sVbaker
p3879
I1390
sVmartin
p3880
I1978
sVdave
p3881
I1764
sVrule
p3882
I2390
sVintentionally
p3883
I3782
sVscenario-dependent
p3884
I2789
sVcogsketch
p3885
I3222
sVwittgenstein
p3886
I3413
sVunexplanation
p3887
I2722
sVawake
p3888
I3091
sVindirectly
p3889
I3689
ssS'dfs'
p3890
(dp3891
I0
I4
sI1
I1
sI2
I1
sI3
I4
sI4
I12
sI5
I5
sI6
I3
sI7
I1
sI8
I2
sI9
I1
sI10
I3
sI11
I4
sI12
I2
sI13
I1
sI14
I29
sI15
I15
sI16
I31
sI17
I1
sI18
I37
sI19
I16
sI20
I1
sI21
I1
sI22
I2
sI23
I23
sI24
I7
sI25
I4
sI26
I4
sI27
I2
sI28
I19
sI29
I5
sI30
I5
sI31
I1
sI32
I2
sI33
I5
sI34
I25
sI35
I20
sI36
I1
sI37
I1
sI38
I1
sI39
I7
sI40
I6
sI41
I1
sI42
I2
sI43
I10
sI44
I23
sI45
I1
sI46
I8
sI47
I6
sI48
I4
sI49
I41
sI50
I27
sI51
I13
sI52
I14
sI53
I4
sI54
I1
sI55
I1
sI56
I4
sI57
I2
sI58
I11
sI59
I9
sI60
I9
sI61
I5
sI62
I1
sI63
I1
sI64
I15
sI65
I3
sI66
I18
sI67
I18
sI68
I1
sI69
I1
sI70
I1
sI71
I1
sI72
I3
sI73
I3
sI74
I1
sI75
I4
sI76
I1
sI77
I1
sI78
I2
sI79
I1
sI80
I42
sI81
I6
sI82
I16
sI83
I37
sI84
I12
sI85
I1
sI86
I34
sI87
I1
sI88
I30
sI89
I2
sI90
I3
sI91
I1
sI92
I1
sI93
I10
sI94
I1
sI95
I4
sI96
I3
sI97
I10
sI98
I32
sI99
I1
sI100
I1
sI101
I18
sI102
I2
sI103
I5
sI104
I20
sI105
I3
sI106
I30
sI107
I17
sI108
I18
sI109
I2
sI110
I3
sI111
I1
sI112
I17
sI113
I2
sI114
I1
sI115
I1
sI116
I1
sI117
I2
sI118
I7
sI119
I2
sI120
I2
sI121
I3
sI122
I22
sI123
I1
sI124
I2
sI125
I3
sI126
I1
sI127
I54
sI128
I1
sI129
I3
sI130
I2
sI131
I7
sI132
I2
sI133
I27
sI134
I27
sI135
I41
sI136
I1
sI137
I36
sI138
I1
sI139
I17
sI140
I7
sI141
I4
sI142
I24
sI143
I1
sI144
I5
sI145
I6
sI146
I21
sI147
I1
sI148
I17
sI149
I1
sI150
I8
sI151
I7
sI152
I4
sI153
I3
sI154
I1
sI155
I2
sI156
I29
sI157
I23
sI158
I10
sI159
I17
sI160
I2
sI161
I1
sI162
I5
sI163
I8
sI164
I3
sI165
I1
sI166
I9
sI167
I22
sI168
I4
sI169
I14
sI170
I11
sI171
I2
sI172
I27
sI173
I12
sI174
I10
sI175
I1
sI176
I13
sI177
I2
sI178
I12
sI179
I35
sI180
I20
sI181
I1
sI182
I1
sI183
I1
sI184
I27
sI185
I42
sI186
I34
sI187
I15
sI188
I56
sI189
I24
sI190
I18
sI191
I2
sI192
I11
sI193
I6
sI194
I13
sI195
I10
sI196
I3
sI197
I18
sI198
I6
sI199
I2
sI200
I19
sI201
I40
sI202
I33
sI203
I14
sI204
I3
sI205
I12
sI206
I1
sI207
I20
sI208
I5
sI209
I6
sI210
I29
sI211
I28
sI212
I6
sI213
I1
sI214
I1
sI215
I4
sI216
I2
sI217
I5
sI218
I6
sI219
I4
sI220
I3
sI221
I1
sI222
I11
sI223
I11
sI224
I1
sI225
I1
sI226
I23
sI227
I6
sI228
I2
sI229
I6
sI230
I6
sI231
I1
sI232
I1
sI233
I13
sI234
I9
sI235
I1
sI236
I1
sI237
I8
sI238
I1
sI239
I28
sI240
I1
sI241
I2
sI242
I6
sI243
I36
sI244
I1
sI245
I16
sI246
I5
sI247
I3
sI248
I3
sI249
I8
sI250
I1
sI251
I11
sI252
I44
sI253
I11
sI254
I15
sI255
I1
sI256
I1
sI257
I4
sI258
I2
sI259
I3
sI260
I3
sI261
I2
sI262
I1
sI263
I1
sI264
I3
sI265
I6
sI266
I19
sI267
I12
sI268
I3
sI269
I3
sI270
I1
sI271
I1
sI272
I8
sI273
I13
sI274
I6
sI275
I12
sI276
I19
sI277
I12
sI278
I1
sI279
I8
sI280
I31
sI281
I20
sI282
I3
sI283
I1
sI284
I3
sI285
I10
sI286
I1
sI287
I2
sI288
I3
sI289
I1
sI290
I1
sI291
I2
sI292
I4
sI293
I2
sI294
I1
sI295
I20
sI296
I18
sI297
I9
sI298
I37
sI299
I1
sI300
I1
sI301
I17
sI302
I6
sI303
I4
sI304
I6
sI305
I1
sI306
I18
sI307
I20
sI308
I1
sI309
I4
sI310
I1
sI311
I1
sI312
I1
sI313
I10
sI314
I1
sI315
I1
sI316
I15
sI317
I3
sI318
I2
sI319
I1
sI320
I1
sI321
I1
sI322
I2
sI323
I2
sI324
I4
sI325
I28
sI326
I12
sI327
I1
sI328
I2
sI329
I4
sI330
I12
sI331
I17
sI332
I2
sI333
I6
sI334
I9
sI335
I4
sI336
I1
sI337
I2
sI338
I1
sI339
I3
sI340
I3
sI341
I2
sI342
I12
sI343
I9
sI344
I5
sI345
I1
sI346
I1
sI347
I5
sI348
I1
sI349
I1
sI350
I6
sI351
I14
sI352
I10
sI353
I7
sI354
I13
sI355
I10
sI356
I2
sI357
I2
sI358
I7
sI359
I10
sI360
I1
sI361
I5
sI362
I1
sI363
I16
sI364
I1
sI365
I1
sI366
I1
sI367
I1
sI368
I1
sI369
I1
sI370
I9
sI371
I6
sI372
I1
sI373
I1
sI374
I9
sI375
I5
sI376
I3
sI377
I4
sI378
I10
sI379
I4
sI380
I1
sI381
I2
sI382
I12
sI383
I9
sI384
I2
sI385
I10
sI386
I5
sI387
I1
sI388
I2
sI389
I3
sI390
I7
sI391
I15
sI392
I20
sI393
I2
sI394
I9
sI395
I1
sI396
I1
sI397
I1
sI398
I16
sI399
I1
sI400
I4
sI401
I1
sI402
I6
sI403
I4
sI404
I4
sI405
I2
sI406
I9
sI407
I7
sI408
I2
sI409
I1
sI410
I1
sI411
I9
sI412
I1
sI413
I2
sI414
I6
sI415
I2
sI416
I1
sI417
I6
sI418
I9
sI419
I2
sI420
I1
sI421
I1
sI422
I2
sI423
I1
sI424
I1
sI425
I7
sI426
I1
sI427
I8
sI428
I1
sI429
I4
sI430
I2
sI431
I9
sI432
I16
sI433
I5
sI434
I3
sI435
I5
sI436
I7
sI437
I2
sI438
I2
sI439
I1
sI440
I1
sI441
I2
sI442
I1
sI443
I1
sI444
I5
sI445
I1
sI446
I1
sI447
I3
sI448
I8
sI449
I12
sI450
I1
sI451
I5
sI452
I4
sI453
I2
sI454
I3
sI455
I5
sI456
I11
sI457
I5
sI458
I1
sI459
I1
sI460
I5
sI461
I2
sI462
I2
sI463
I1
sI464
I1
sI465
I1
sI466
I11
sI467
I9
sI468
I1
sI469
I1
sI470
I1
sI471
I15
sI472
I3
sI473
I1
sI474
I5
sI475
I6
sI476
I12
sI477
I1
sI478
I3
sI479
I2
sI480
I1
sI481
I9
sI482
I7
sI483
I1
sI484
I2
sI485
I10
sI486
I4
sI487
I4
sI488
I14
sI489
I13
sI490
I11
sI491
I15
sI492
I1
sI493
I1
sI494
I1
sI495
I4
sI496
I5
sI497
I2
sI498
I1
sI499
I1
sI500
I10
sI501
I5
sI502
I8
sI503
I10
sI504
I3
sI505
I8
sI506
I1
sI507
I1
sI508
I9
sI509
I9
sI510
I1
sI511
I11
sI512
I3
sI513
I3
sI514
I1
sI515
I1
sI516
I16
sI517
I1
sI518
I6
sI519
I1
sI520
I2
sI521
I1
sI522
I18
sI523
I4
sI524
I1
sI525
I1
sI526
I5
sI527
I2
sI528
I16
sI529
I3
sI530
I1
sI531
I14
sI532
I1
sI533
I4
sI534
I1
sI535
I2
sI536
I2
sI537
I5
sI538
I4
sI539
I4
sI540
I8
sI541
I1
sI542
I1
sI543
I1
sI544
I16
sI545
I7
sI546
I2
sI547
I7
sI548
I4
sI549
I15
sI550
I7
sI551
I2
sI552
I10
sI553
I1
sI554
I1
sI555
I2
sI556
I2
sI557
I1
sI558
I1
sI559
I4
sI560
I10
sI561
I5
sI562
I6
sI563
I5
sI564
I4
sI565
I1
sI566
I5
sI567
I7
sI568
I11
sI569
I25
sI570
I8
sI571
I2
sI572
I20
sI573
I1
sI574
I1
sI575
I1
sI576
I9
sI577
I13
sI578
I19
sI579
I1
sI580
I3
sI581
I4
sI582
I2
sI583
I19
sI584
I10
sI585
I1
sI586
I1
sI587
I1
sI588
I7
sI589
I19
sI590
I6
sI591
I1
sI592
I1
sI593
I1
sI594
I1
sI595
I2
sI596
I20
sI597
I1
sI598
I13
sI599
I18
sI600
I4
sI601
I1
sI602
I13
sI603
I2
sI604
I7
sI605
I2
sI606
I4
sI607
I1
sI608
I13
sI609
I2
sI610
I2
sI611
I18
sI612
I1
sI613
I3
sI614
I6
sI615
I12
sI616
I6
sI617
I7
sI618
I5
sI619
I3
sI620
I7
sI621
I7
sI622
I3
sI623
I2
sI624
I14
sI625
I1
sI626
I1
sI627
I1
sI628
I14
sI629
I24
sI630
I16
sI631
I4
sI632
I6
sI633
I1
sI634
I1
sI635
I8
sI636
I2
sI637
I1
sI638
I3
sI639
I5
sI640
I6
sI641
I3
sI642
I1
sI643
I1
sI644
I6
sI645
I10
sI646
I1
sI647
I2
sI648
I1
sI649
I4
sI650
I5
sI651
I2
sI652
I2
sI653
I2
sI654
I1
sI655
I11
sI656
I1
sI657
I1
sI658
I22
sI659
I3
sI660
I1
sI661
I1
sI662
I12
sI663
I7
sI664
I2
sI665
I7
sI666
I1
sI667
I1
sI668
I5
sI669
I2
sI670
I5
sI671
I10
sI672
I4
sI673
I17
sI674
I11
sI675
I3
sI676
I1
sI677
I6
sI678
I2
sI679
I3
sI680
I1
sI681
I2
sI682
I1
sI683
I3
sI684
I13
sI685
I2
sI686
I1
sI687
I1
sI688
I1
sI689
I2
sI690
I1
sI691
I1
sI692
I9
sI693
I6
sI694
I2
sI695
I1
sI696
I5
sI697
I4
sI698
I6
sI699
I1
sI700
I1
sI701
I1
sI702
I2
sI703
I4
sI704
I1
sI705
I2
sI706
I6
sI707
I1
sI708
I4
sI709
I1
sI710
I1
sI711
I6
sI712
I6
sI713
I1
sI714
I11
sI715
I8
sI716
I3
sI717
I1
sI718
I6
sI719
I2
sI720
I4
sI721
I1
sI722
I1
sI723
I1
sI724
I1
sI725
I1
sI726
I11
sI727
I2
sI728
I1
sI729
I1
sI730
I4
sI731
I2
sI732
I1
sI733
I1
sI734
I20
sI735
I1
sI736
I3
sI737
I2
sI738
I8
sI739
I1
sI740
I1
sI741
I4
sI742
I2
sI743
I1
sI744
I3
sI745
I1
sI746
I2
sI747
I4
sI748
I7
sI749
I9
sI750
I6
sI751
I1
sI752
I7
sI753
I2
sI754
I3
sI755
I20
sI756
I1
sI757
I4
sI758
I9
sI759
I1
sI760
I1
sI761
I1
sI762
I6
sI763
I2
sI764
I1
sI765
I1
sI766
I1
sI767
I8
sI768
I1
sI769
I1
sI770
I2
sI771
I11
sI772
I6
sI773
I2
sI774
I2
sI775
I4
sI776
I8
sI777
I3
sI778
I1
sI779
I19
sI780
I24
sI781
I20
sI782
I7
sI783
I13
sI784
I5
sI785
I1
sI786
I14
sI787
I17
sI788
I6
sI789
I7
sI790
I1
sI791
I1
sI792
I2
sI793
I5
sI794
I1
sI795
I6
sI796
I1
sI797
I4
sI798
I1
sI799
I2
sI800
I1
sI801
I8
sI802
I1
sI803
I5
sI804
I2
sI805
I8
sI806
I7
sI807
I15
sI808
I18
sI809
I3
sI810
I13
sI811
I1
sI812
I22
sI813
I22
sI814
I10
sI815
I4
sI816
I3
sI817
I1
sI818
I9
sI819
I1
sI820
I1
sI821
I2
sI822
I1
sI823
I17
sI824
I48
sI825
I20
sI826
I1
sI827
I1
sI828
I24
sI829
I32
sI830
I1
sI831
I1
sI832
I15
sI833
I12
sI834
I14
sI835
I10
sI836
I10
sI837
I19
sI838
I2
sI839
I1
sI840
I2
sI841
I2
sI842
I2
sI843
I2
sI844
I15
sI845
I3
sI846
I1
sI847
I1
sI848
I1
sI849
I1
sI850
I8
sI851
I1
sI852
I14
sI853
I6
sI854
I1
sI855
I1
sI856
I4
sI857
I4
sI858
I1
sI859
I4
sI860
I6
sI861
I2
sI862
I3
sI863
I1
sI864
I16
sI865
I1
sI866
I6
sI867
I1
sI868
I3
sI869
I3
sI870
I1
sI871
I1
sI872
I2
sI873
I5
sI874
I16
sI875
I3
sI876
I11
sI877
I5
sI878
I4
sI879
I5
sI880
I1
sI881
I1
sI882
I4
sI883
I12
sI884
I5
sI885
I4
sI886
I4
sI887
I1
sI888
I2
sI889
I3
sI890
I1
sI891
I5
sI892
I5
sI893
I8
sI894
I4
sI895
I4
sI896
I5
sI897
I7
sI898
I9
sI899
I5
sI900
I1
sI901
I5
sI902
I4
sI903
I1
sI904
I12
sI905
I5
sI906
I2
sI907
I1
sI908
I13
sI909
I5
sI910
I1
sI911
I6
sI912
I1
sI913
I2
sI914
I15
sI915
I10
sI916
I9
sI917
I11
sI918
I1
sI919
I2
sI920
I1
sI921
I12
sI922
I10
sI923
I1
sI924
I6
sI925
I12
sI926
I14
sI927
I10
sI928
I8
sI929
I12
sI930
I1
sI931
I1
sI932
I12
sI933
I11
sI934
I11
sI935
I12
sI936
I13
sI937
I13
sI938
I1
sI939
I1
sI940
I13
sI941
I23
sI942
I3
sI943
I7
sI944
I2
sI945
I1
sI946
I4
sI947
I1
sI948
I1
sI949
I1
sI950
I1
sI951
I1
sI952
I1
sI953
I3
sI954
I4
sI955
I1
sI956
I3
sI957
I2
sI958
I1
sI959
I3
sI960
I1
sI961
I1
sI962
I1
sI963
I5
sI964
I1
sI965
I5
sI966
I1
sI967
I1
sI968
I2
sI969
I2
sI970
I7
sI971
I3
sI972
I1
sI973
I1
sI974
I1
sI975
I4
sI976
I2
sI977
I8
sI978
I2
sI979
I1
sI980
I7
sI981
I1
sI982
I4
sI983
I3
sI984
I5
sI985
I4
sI986
I6
sI987
I1
sI988
I2
sI989
I1
sI990
I1
sI991
I3
sI992
I2
sI993
I1
sI994
I1
sI995
I1
sI996
I4
sI997
I1
sI998
I1
sI999
I1
sI1000
I1
sI1001
I4
sI1002
I1
sI1003
I1
sI1004
I1
sI1005
I5
sI1006
I1
sI1007
I2
sI1008
I11
sI1009
I3
sI1010
I3
sI1011
I1
sI1012
I1
sI1013
I1
sI1014
I1
sI1015
I2
sI1016
I1
sI1017
I1
sI1018
I2
sI1019
I1
sI1020
I2
sI1021
I4
sI1022
I2
sI1023
I1
sI1024
I1
sI1025
I1
sI1026
I1
sI1027
I1
sI1028
I2
sI1029
I1
sI1030
I1
sI1031
I1
sI1032
I1
sI1033
I1
sI1034
I3
sI1035
I2
sI1036
I1
sI1037
I8
sI1038
I1
sI1039
I4
sI1040
I8
sI1041
I2
sI1042
I2
sI1043
I2
sI1044
I1
sI1045
I3
sI1046
I1
sI1047
I3
sI1048
I1
sI1049
I2
sI1050
I2
sI1051
I2
sI1052
I2
sI1053
I1
sI1054
I2
sI1055
I4
sI1056
I2
sI1057
I1
sI1058
I1
sI1059
I1
sI1060
I1
sI1061
I8
sI1062
I1
sI1063
I1
sI1064
I3
sI1065
I1
sI1066
I2
sI1067
I2
sI1068
I5
sI1069
I4
sI1070
I1
sI1071
I1
sI1072
I1
sI1073
I6
sI1074
I6
sI1075
I2
sI1076
I3
sI1077
I2
sI1078
I4
sI1079
I1
sI1080
I8
sI1081
I14
sI1082
I2
sI1083
I3
sI1084
I1
sI1085
I1
sI1086
I2
sI1087
I1
sI1088
I2
sI1089
I1
sI1090
I1
sI1091
I14
sI1092
I6
sI1093
I1
sI1094
I6
sI1095
I1
sI1096
I3
sI1097
I1
sI1098
I8
sI1099
I2
sI1100
I2
sI1101
I1
sI1102
I5
sI1103
I1
sI1104
I5
sI1105
I5
sI1106
I4
sI1107
I2
sI1108
I4
sI1109
I1
sI1110
I6
sI1111
I6
sI1112
I7
sI1113
I9
sI1114
I1
sI1115
I2
sI1116
I1
sI1117
I2
sI1118
I1
sI1119
I1
sI1120
I1
sI1121
I3
sI1122
I1
sI1123
I1
sI1124
I5
sI1125
I1
sI1126
I7
sI1127
I2
sI1128
I1
sI1129
I1
sI1130
I1
sI1131
I1
sI1132
I4
sI1133
I1
sI1134
I1
sI1135
I1
sI1136
I1
sI1137
I3
sI1138
I1
sI1139
I1
sI1140
I1
sI1141
I1
sI1142
I1
sI1143
I1
sI1144
I1
sI1145
I2
sI1146
I1
sI1147
I1
sI1148
I12
sI1149
I1
sI1150
I3
sI1151
I1
sI1152
I2
sI1153
I9
sI1154
I2
sI1155
I2
sI1156
I1
sI1157
I1
sI1158
I1
sI1159
I1
sI1160
I1
sI1161
I3
sI1162
I1
sI1163
I1
sI1164
I11
sI1165
I1
sI1166
I1
sI1167
I1
sI1168
I1
sI1169
I2
sI1170
I1
sI1171
I3
sI1172
I1
sI1173
I1
sI1174
I1
sI1175
I8
sI1176
I1
sI1177
I1
sI1178
I3
sI1179
I1
sI1180
I3
sI1181
I2
sI1182
I1
sI1183
I4
sI1184
I3
sI1185
I1
sI1186
I2
sI1187
I2
sI1188
I2
sI1189
I5
sI1190
I1
sI1191
I1
sI1192
I1
sI1193
I3
sI1194
I1
sI1195
I1
sI1196
I1
sI1197
I1
sI1198
I1
sI1199
I1
sI1200
I2
sI1201
I2
sI1202
I1
sI1203
I1
sI1204
I3
sI1205
I1
sI1206
I16
sI1207
I1
sI1208
I6
sI1209
I4
sI1210
I3
sI1211
I8
sI1212
I3
sI1213
I2
sI1214
I2
sI1215
I1
sI1216
I3
sI1217
I1
sI1218
I2
sI1219
I10
sI1220
I6
sI1221
I7
sI1222
I1
sI1223
I3
sI1224
I6
sI1225
I10
sI1226
I9
sI1227
I8
sI1228
I7
sI1229
I4
sI1230
I7
sI1231
I2
sI1232
I4
sI1233
I2
sI1234
I2
sI1235
I7
sI1236
I2
sI1237
I1
sI1238
I10
sI1239
I6
sI1240
I9
sI1241
I3
sI1242
I3
sI1243
I4
sI1244
I8
sI1245
I1
sI1246
I1
sI1247
I4
sI1248
I1
sI1249
I3
sI1250
I12
sI1251
I3
sI1252
I5
sI1253
I3
sI1254
I6
sI1255
I1
sI1256
I10
sI1257
I2
sI1258
I1
sI1259
I19
sI1260
I7
sI1261
I1
sI1262
I2
sI1263
I20
sI1264
I4
sI1265
I1
sI1266
I10
sI1267
I1
sI1268
I4
sI1269
I8
sI1270
I6
sI1271
I2
sI1272
I1
sI1273
I2
sI1274
I4
sI1275
I7
sI1276
I16
sI1277
I13
sI1278
I1
sI1279
I12
sI1280
I1
sI1281
I14
sI1282
I1
sI1283
I1
sI1284
I1
sI1285
I2
sI1286
I3
sI1287
I7
sI1288
I12
sI1289
I11
sI1290
I4
sI1291
I1
sI1292
I1
sI1293
I9
sI1294
I1
sI1295
I4
sI1296
I4
sI1297
I3
sI1298
I1
sI1299
I1
sI1300
I5
sI1301
I1
sI1302
I9
sI1303
I2
sI1304
I5
sI1305
I3
sI1306
I3
sI1307
I2
sI1308
I1
sI1309
I2
sI1310
I6
sI1311
I6
sI1312
I9
sI1313
I6
sI1314
I1
sI1315
I3
sI1316
I9
sI1317
I1
sI1318
I1
sI1319
I9
sI1320
I2
sI1321
I4
sI1322
I4
sI1323
I7
sI1324
I8
sI1325
I4
sI1326
I4
sI1327
I9
sI1328
I8
sI1329
I11
sI1330
I2
sI1331
I2
sI1332
I4
sI1333
I9
sI1334
I3
sI1335
I13
sI1336
I14
sI1337
I7
sI1338
I1
sI1339
I7
sI1340
I5
sI1341
I4
sI1342
I5
sI1343
I3
sI1344
I1
sI1345
I7
sI1346
I6
sI1347
I1
sI1348
I3
sI1349
I1
sI1350
I3
sI1351
I1
sI1352
I3
sI1353
I4
sI1354
I1
sI1355
I6
sI1356
I3
sI1357
I8
sI1358
I5
sI1359
I2
sI1360
I2
sI1361
I5
sI1362
I4
sI1363
I7
sI1364
I2
sI1365
I4
sI1366
I10
sI1367
I3
sI1368
I5
sI1369
I2
sI1370
I1
sI1371
I1
sI1372
I8
sI1373
I5
sI1374
I1
sI1375
I2
sI1376
I4
sI1377
I2
sI1378
I2
sI1379
I1
sI1380
I5
sI1381
I7
sI1382
I5
sI1383
I2
sI1384
I5
sI1385
I1
sI1386
I2
sI1387
I1
sI1388
I1
sI1389
I1
sI1390
I2
sI1391
I7
sI1392
I6
sI1393
I2
sI1394
I7
sI1395
I3
sI1396
I6
sI1397
I7
sI1398
I4
sI1399
I2
sI1400
I2
sI1401
I1
sI1402
I2
sI1403
I4
sI1404
I2
sI1405
I5
sI1406
I1
sI1407
I6
sI1408
I2
sI1409
I2
sI1410
I6
sI1411
I2
sI1412
I7
sI1413
I2
sI1414
I1
sI1415
I6
sI1416
I3
sI1417
I5
sI1418
I4
sI1419
I2
sI1420
I1
sI1421
I1
sI1422
I8
sI1423
I4
sI1424
I2
sI1425
I6
sI1426
I1
sI1427
I2
sI1428
I10
sI1429
I3
sI1430
I2
sI1431
I1
sI1432
I1
sI1433
I10
sI1434
I13
sI1435
I3
sI1436
I1
sI1437
I4
sI1438
I1
sI1439
I1
sI1440
I4
sI1441
I8
sI1442
I1
sI1443
I1
sI1444
I1
sI1445
I2
sI1446
I6
sI1447
I1
sI1448
I7
sI1449
I7
sI1450
I1
sI1451
I5
sI1452
I1
sI1453
I2
sI1454
I2
sI1455
I1
sI1456
I3
sI1457
I6
sI1458
I1
sI1459
I7
sI1460
I1
sI1461
I4
sI1462
I1
sI1463
I3
sI1464
I2
sI1465
I4
sI1466
I1
sI1467
I8
sI1468
I2
sI1469
I3
sI1470
I1
sI1471
I1
sI1472
I2
sI1473
I3
sI1474
I3
sI1475
I1
sI1476
I3
sI1477
I8
sI1478
I6
sI1479
I3
sI1480
I1
sI1481
I2
sI1482
I1
sI1483
I4
sI1484
I1
sI1485
I3
sI1486
I5
sI1487
I2
sI1488
I3
sI1489
I8
sI1490
I3
sI1491
I1
sI1492
I12
sI1493
I3
sI1494
I5
sI1495
I1
sI1496
I1
sI1497
I2
sI1498
I1
sI1499
I2
sI1500
I5
sI1501
I2
sI1502
I1
sI1503
I3
sI1504
I7
sI1505
I1
sI1506
I5
sI1507
I6
sI1508
I4
sI1509
I1
sI1510
I3
sI1511
I3
sI1512
I4
sI1513
I4
sI1514
I7
sI1515
I1
sI1516
I2
sI1517
I1
sI1518
I4
sI1519
I2
sI1520
I5
sI1521
I1
sI1522
I4
sI1523
I1
sI1524
I7
sI1525
I1
sI1526
I1
sI1527
I3
sI1528
I3
sI1529
I6
sI1530
I7
sI1531
I2
sI1532
I4
sI1533
I1
sI1534
I4
sI1535
I1
sI1536
I1
sI1537
I4
sI1538
I1
sI1539
I7
sI1540
I5
sI1541
I7
sI1542
I2
sI1543
I1
sI1544
I6
sI1545
I3
sI1546
I1
sI1547
I2
sI1548
I3
sI1549
I3
sI1550
I1
sI1551
I6
sI1552
I1
sI1553
I1
sI1554
I1
sI1555
I2
sI1556
I5
sI1557
I5
sI1558
I2
sI1559
I1
sI1560
I1
sI1561
I6
sI1562
I1
sI1563
I2
sI1564
I10
sI1565
I6
sI1566
I3
sI1567
I5
sI1568
I2
sI1569
I4
sI1570
I2
sI1571
I1
sI1572
I3
sI1573
I3
sI1574
I6
sI1575
I5
sI1576
I4
sI1577
I1
sI1578
I1
sI1579
I2
sI1580
I8
sI1581
I1
sI1582
I4
sI1583
I3
sI1584
I1
sI1585
I3
sI1586
I3
sI1587
I1
sI1588
I7
sI1589
I6
sI1590
I6
sI1591
I1
sI1592
I4
sI1593
I5
sI1594
I2
sI1595
I2
sI1596
I2
sI1597
I2
sI1598
I3
sI1599
I4
sI1600
I1
sI1601
I1
sI1602
I2
sI1603
I3
sI1604
I1
sI1605
I2
sI1606
I5
sI1607
I8
sI1608
I4
sI1609
I4
sI1610
I1
sI1611
I2
sI1612
I2
sI1613
I5
sI1614
I1
sI1615
I2
sI1616
I1
sI1617
I8
sI1618
I3
sI1619
I4
sI1620
I3
sI1621
I1
sI1622
I2
sI1623
I7
sI1624
I4
sI1625
I3
sI1626
I7
sI1627
I1
sI1628
I1
sI1629
I1
sI1630
I5
sI1631
I1
sI1632
I2
sI1633
I1
sI1634
I1
sI1635
I6
sI1636
I3
sI1637
I2
sI1638
I4
sI1639
I6
sI1640
I1
sI1641
I1
sI1642
I8
sI1643
I3
sI1644
I5
sI1645
I12
sI1646
I1
sI1647
I14
sI1648
I3
sI1649
I7
sI1650
I2
sI1651
I1
sI1652
I2
sI1653
I6
sI1654
I3
sI1655
I3
sI1656
I4
sI1657
I6
sI1658
I1
sI1659
I2
sI1660
I1
sI1661
I10
sI1662
I2
sI1663
I7
sI1664
I5
sI1665
I4
sI1666
I1
sI1667
I1
sI1668
I7
sI1669
I1
sI1670
I3
sI1671
I3
sI1672
I2
sI1673
I2
sI1674
I2
sI1675
I8
sI1676
I3
sI1677
I1
sI1678
I1
sI1679
I1
sI1680
I3
sI1681
I1
sI1682
I1
sI1683
I5
sI1684
I1
sI1685
I4
sI1686
I4
sI1687
I1
sI1688
I1
sI1689
I1
sI1690
I1
sI1691
I15
sI1692
I2
sI1693
I1
sI1694
I13
sI1695
I2
sI1696
I2
sI1697
I4
sI1698
I5
sI1699
I4
sI1700
I3
sI1701
I1
sI1702
I2
sI1703
I11
sI1704
I2
sI1705
I6
sI1706
I2
sI1707
I9
sI1708
I21
sI1709
I9
sI1710
I2
sI1711
I4
sI1712
I1
sI1713
I2
sI1714
I1
sI1715
I8
sI1716
I4
sI1717
I2
sI1718
I2
sI1719
I1
sI1720
I1
sI1721
I2
sI1722
I2
sI1723
I1
sI1724
I2
sI1725
I16
sI1726
I8
sI1727
I1
sI1728
I2
sI1729
I1
sI1730
I2
sI1731
I6
sI1732
I3
sI1733
I1
sI1734
I1
sI1735
I1
sI1736
I1
sI1737
I1
sI1738
I3
sI1739
I16
sI1740
I1
sI1741
I2
sI1742
I3
sI1743
I2
sI1744
I2
sI1745
I2
sI1746
I1
sI1747
I1
sI1748
I1
sI1749
I4
sI1750
I2
sI1751
I1
sI1752
I1
sI1753
I2
sI1754
I1
sI1755
I1
sI1756
I1
sI1757
I3
sI1758
I4
sI1759
I2
sI1760
I3
sI1761
I1
sI1762
I1
sI1763
I1
sI1764
I1
sI1765
I9
sI1766
I6
sI1767
I1
sI1768
I1
sI1769
I2
sI1770
I1
sI1771
I1
sI1772
I1
sI1773
I1
sI1774
I2
sI1775
I1
sI1776
I1
sI1777
I1
sI1778
I5
sI1779
I1
sI1780
I1
sI1781
I1
sI1782
I1
sI1783
I1
sI1784
I1
sI1785
I3
sI1786
I2
sI1787
I3
sI1788
I1
sI1789
I2
sI1790
I1
sI1791
I3
sI1792
I1
sI1793
I5
sI1794
I3
sI1795
I1
sI1796
I3
sI1797
I3
sI1798
I5
sI1799
I1
sI1800
I1
sI1801
I1
sI1802
I1
sI1803
I1
sI1804
I4
sI1805
I1
sI1806
I5
sI1807
I1
sI1808
I3
sI1809
I1
sI1810
I1
sI1811
I1
sI1812
I2
sI1813
I1
sI1814
I3
sI1815
I2
sI1816
I1
sI1817
I1
sI1818
I3
sI1819
I1
sI1820
I4
sI1821
I5
sI1822
I10
sI1823
I1
sI1824
I13
sI1825
I1
sI1826
I6
sI1827
I1
sI1828
I4
sI1829
I1
sI1830
I1
sI1831
I4
sI1832
I3
sI1833
I1
sI1834
I2
sI1835
I1
sI1836
I4
sI1837
I1
sI1838
I4
sI1839
I2
sI1840
I1
sI1841
I1
sI1842
I1
sI1843
I1
sI1844
I6
sI1845
I1
sI1846
I1
sI1847
I1
sI1848
I1
sI1849
I1
sI1850
I1
sI1851
I7
sI1852
I1
sI1853
I1
sI1854
I8
sI1855
I2
sI1856
I1
sI1857
I4
sI1858
I5
sI1859
I1
sI1860
I1
sI1861
I4
sI1862
I1
sI1863
I10
sI1864
I2
sI1865
I4
sI1866
I1
sI1867
I1
sI1868
I3
sI1869
I1
sI1870
I1
sI1871
I1
sI1872
I6
sI1873
I1
sI1874
I1
sI1875
I1
sI1876
I1
sI1877
I1
sI1878
I1
sI1879
I1
sI1880
I1
sI1881
I1
sI1882
I1
sI1883
I3
sI1884
I1
sI1885
I1
sI1886
I3
sI1887
I3
sI1888
I6
sI1889
I1
sI1890
I2
sI1891
I3
sI1892
I5
sI1893
I1
sI1894
I3
sI1895
I5
sI1896
I5
sI1897
I1
sI1898
I2
sI1899
I2
sI1900
I1
sI1901
I1
sI1902
I2
sI1903
I4
sI1904
I2
sI1905
I1
sI1906
I3
sI1907
I3
sI1908
I3
sI1909
I3
sI1910
I8
sI1911
I1
sI1912
I6
sI1913
I3
sI1914
I1
sI1915
I2
sI1916
I2
sI1917
I4
sI1918
I1
sI1919
I8
sI1920
I1
sI1921
I1
sI1922
I3
sI1923
I5
sI1924
I2
sI1925
I1
sI1926
I1
sI1927
I2
sI1928
I1
sI1929
I4
sI1930
I1
sI1931
I1
sI1932
I1
sI1933
I1
sI1934
I1
sI1935
I1
sI1936
I1
sI1937
I2
sI1938
I1
sI1939
I3
sI1940
I2
sI1941
I1
sI1942
I1
sI1943
I3
sI1944
I1
sI1945
I1
sI1946
I1
sI1947
I1
sI1948
I1
sI1949
I1
sI1950
I2
sI1951
I6
sI1952
I1
sI1953
I2
sI1954
I5
sI1955
I1
sI1956
I3
sI1957
I1
sI1958
I2
sI1959
I1
sI1960
I2
sI1961
I2
sI1962
I1
sI1963
I1
sI1964
I7
sI1965
I1
sI1966
I2
sI1967
I4
sI1968
I11
sI1969
I3
sI1970
I1
sI1971
I1
sI1972
I1
sI1973
I1
sI1974
I1
sI1975
I1
sI1976
I1
sI1977
I2
sI1978
I2
sI1979
I1
sI1980
I1
sI1981
I1
sI1982
I3
sI1983
I1
sI1984
I1
sI1985
I1
sI1986
I3
sI1987
I3
sI1988
I1
sI1989
I1
sI1990
I1
sI1991
I2
sI1992
I1
sI1993
I1
sI1994
I1
sI1995
I1
sI1996
I1
sI1997
I2
sI1998
I2
sI1999
I4
sI2000
I2
sI2001
I1
sI2002
I6
sI2003
I1
sI2004
I5
sI2005
I9
sI2006
I1
sI2007
I2
sI2008
I4
sI2009
I1
sI2010
I2
sI2011
I2
sI2012
I2
sI2013
I1
sI2014
I1
sI2015
I4
sI2016
I2
sI2017
I1
sI2018
I1
sI2019
I3
sI2020
I2
sI2021
I3
sI2022
I1
sI2023
I5
sI2024
I1
sI2025
I2
sI2026
I2
sI2027
I4
sI2028
I2
sI2029
I1
sI2030
I1
sI2031
I1
sI2032
I1
sI2033
I1
sI2034
I1
sI2035
I1
sI2036
I3
sI2037
I1
sI2038
I1
sI2039
I1
sI2040
I1
sI2041
I1
sI2042
I1
sI2043
I1
sI2044
I5
sI2045
I3
sI2046
I4
sI2047
I1
sI2048
I1
sI2049
I1
sI2050
I1
sI2051
I1
sI2052
I1
sI2053
I1
sI2054
I1
sI2055
I1
sI2056
I2
sI2057
I2
sI2058
I2
sI2059
I1
sI2060
I2
sI2061
I2
sI2062
I1
sI2063
I1
sI2064
I1
sI2065
I1
sI2066
I4
sI2067
I3
sI2068
I1
sI2069
I3
sI2070
I4
sI2071
I1
sI2072
I3
sI2073
I2
sI2074
I1
sI2075
I2
sI2076
I2
sI2077
I1
sI2078
I1
sI2079
I9
sI2080
I2
sI2081
I1
sI2082
I1
sI2083
I2
sI2084
I2
sI2085
I1
sI2086
I2
sI2087
I2
sI2088
I1
sI2089
I2
sI2090
I2
sI2091
I2
sI2092
I2
sI2093
I2
sI2094
I1
sI2095
I2
sI2096
I2
sI2097
I2
sI2098
I2
sI2099
I1
sI2100
I2
sI2101
I2
sI2102
I2
sI2103
I2
sI2104
I3
sI2105
I2
sI2106
I1
sI2107
I2
sI2108
I2
sI2109
I3
sI2110
I3
sI2111
I2
sI2112
I2
sI2113
I4
sI2114
I2
sI2115
I3
sI2116
I4
sI2117
I4
sI2118
I3
sI2119
I2
sI2120
I6
sI2121
I3
sI2122
I4
sI2123
I2
sI2124
I5
sI2125
I4
sI2126
I2
sI2127
I2
sI2128
I2
sI2129
I1
sI2130
I2
sI2131
I2
sI2132
I3
sI2133
I2
sI2134
I2
sI2135
I4
sI2136
I2
sI2137
I3
sI2138
I2
sI2139
I6
sI2140
I5
sI2141
I2
sI2142
I2
sI2143
I5
sI2144
I3
sI2145
I3
sI2146
I2
sI2147
I3
sI2148
I2
sI2149
I3
sI2150
I2
sI2151
I2
sI2152
I3
sI2153
I2
sI2154
I2
sI2155
I2
sI2156
I2
sI2157
I2
sI2158
I2
sI2159
I3
sI2160
I2
sI2161
I4
sI2162
I3
sI2163
I3
sI2164
I2
sI2165
I3
sI2166
I4
sI2167
I2
sI2168
I2
sI2169
I2
sI2170
I2
sI2171
I5
sI2172
I3
sI2173
I3
sI2174
I2
sI2175
I2
sI2176
I4
sI2177
I4
sI2178
I2
sI2179
I10
sI2180
I4
sI2181
I1
sI2182
I3
sI2183
I2
sI2184
I2
sI2185
I2
sI2186
I2
sI2187
I2
sI2188
I2
sI2189
I3
sI2190
I2
sI2191
I2
sI2192
I5
sI2193
I6
sI2194
I2
sI2195
I4
sI2196
I1
sI2197
I2
sI2198
I2
sI2199
I2
sI2200
I2
sI2201
I3
sI2202
I2
sI2203
I2
sI2204
I2
sI2205
I1
sI2206
I1
sI2207
I3
sI2208
I3
sI2209
I2
sI2210
I2
sI2211
I3
sI2212
I2
sI2213
I2
sI2214
I4
sI2215
I2
sI2216
I5
sI2217
I4
sI2218
I2
sI2219
I5
sI2220
I5
sI2221
I3
sI2222
I3
sI2223
I4
sI2224
I6
sI2225
I3
sI2226
I2
sI2227
I1
sI2228
I2
sI2229
I2
sI2230
I2
sI2231
I4
sI2232
I2
sI2233
I2
sI2234
I2
sI2235
I2
sI2236
I1
sI2237
I3
sI2238
I2
sI2239
I2
sI2240
I3
sI2241
I3
sI2242
I1
sI2243
I3
sI2244
I2
sI2245
I3
sI2246
I3
sI2247
I2
sI2248
I3
sI2249
I8
sI2250
I5
sI2251
I2
sI2252
I4
sI2253
I2
sI2254
I2
sI2255
I2
sI2256
I2
sI2257
I2
sI2258
I2
sI2259
I2
sI2260
I2
sI2261
I2
sI2262
I4
sI2263
I2
sI2264
I5
sI2265
I3
sI2266
I4
sI2267
I2
sI2268
I1
sI2269
I1
sI2270
I3
sI2271
I2
sI2272
I2
sI2273
I2
sI2274
I2
sI2275
I2
sI2276
I3
sI2277
I1
sI2278
I7
sI2279
I2
sI2280
I3
sI2281
I2
sI2282
I5
sI2283
I5
sI2284
I3
sI2285
I2
sI2286
I4
sI2287
I2
sI2288
I2
sI2289
I2
sI2290
I2
sI2291
I4
sI2292
I2
sI2293
I2
sI2294
I2
sI2295
I2
sI2296
I2
sI2297
I5
sI2298
I2
sI2299
I2
sI2300
I5
sI2301
I3
sI2302
I3
sI2303
I2
sI2304
I5
sI2305
I2
sI2306
I3
sI2307
I2
sI2308
I3
sI2309
I4
sI2310
I3
sI2311
I4
sI2312
I2
sI2313
I2
sI2314
I2
sI2315
I2
sI2316
I3
sI2317
I2
sI2318
I5
sI2319
I2
sI2320
I7
sI2321
I2
sI2322
I1
sI2323
I2
sI2324
I4
sI2325
I5
sI2326
I3
sI2327
I2
sI2328
I1
sI2329
I2
sI2330
I2
sI2331
I2
sI2332
I1
sI2333
I1
sI2334
I5
sI2335
I2
sI2336
I1
sI2337
I2
sI2338
I6
sI2339
I6
sI2340
I2
sI2341
I3
sI2342
I4
sI2343
I2
sI2344
I5
sI2345
I5
sI2346
I3
sI2347
I2
sI2348
I2
sI2349
I3
sI2350
I3
sI2351
I2
sI2352
I2
sI2353
I2
sI2354
I5
sI2355
I2
sI2356
I3
sI2357
I4
sI2358
I3
sI2359
I2
sI2360
I3
sI2361
I2
sI2362
I2
sI2363
I2
sI2364
I4
sI2365
I2
sI2366
I5
sI2367
I2
sI2368
I3
sI2369
I2
sI2370
I2
sI2371
I4
sI2372
I2
sI2373
I2
sI2374
I5
sI2375
I2
sI2376
I1
sI2377
I2
sI2378
I3
sI2379
I3
sI2380
I2
sI2381
I2
sI2382
I2
sI2383
I1
sI2384
I3
sI2385
I2
sI2386
I3
sI2387
I3
sI2388
I2
sI2389
I2
sI2390
I4
sI2391
I2
sI2392
I5
sI2393
I1
sI2394
I2
sI2395
I2
sI2396
I2
sI2397
I2
sI2398
I2
sI2399
I5
sI2400
I3
sI2401
I3
sI2402
I5
sI2403
I5
sI2404
I2
sI2405
I2
sI2406
I2
sI2407
I2
sI2408
I2
sI2409
I2
sI2410
I3
sI2411
I1
sI2412
I1
sI2413
I2
sI2414
I2
sI2415
I4
sI2416
I2
sI2417
I4
sI2418
I2
sI2419
I3
sI2420
I3
sI2421
I2
sI2422
I2
sI2423
I3
sI2424
I2
sI2425
I5
sI2426
I2
sI2427
I2
sI2428
I4
sI2429
I2
sI2430
I4
sI2431
I2
sI2432
I3
sI2433
I2
sI2434
I3
sI2435
I2
sI2436
I2
sI2437
I2
sI2438
I2
sI2439
I3
sI2440
I2
sI2441
I4
sI2442
I3
sI2443
I2
sI2444
I4
sI2445
I2
sI2446
I2
sI2447
I2
sI2448
I2
sI2449
I2
sI2450
I2
sI2451
I2
sI2452
I2
sI2453
I3
sI2454
I2
sI2455
I1
sI2456
I2
sI2457
I1
sI2458
I2
sI2459
I1
sI2460
I1
sI2461
I1
sI2462
I1
sI2463
I1
sI2464
I1
sI2465
I1
sI2466
I1
sI2467
I1
sI2468
I1
sI2469
I1
sI2470
I1
sI2471
I1
sI2472
I1
sI2473
I1
sI2474
I1
sI2475
I1
sI2476
I1
sI2477
I1
sI2478
I1
sI2479
I1
sI2480
I3
sI2481
I3
sI2482
I1
sI2483
I1
sI2484
I1
sI2485
I1
sI2486
I1
sI2487
I1
sI2488
I1
sI2489
I1
sI2490
I1
sI2491
I1
sI2492
I1
sI2493
I1
sI2494
I1
sI2495
I1
sI2496
I1
sI2497
I1
sI2498
I2
sI2499
I1
sI2500
I1
sI2501
I1
sI2502
I1
sI2503
I1
sI2504
I1
sI2505
I1
sI2506
I1
sI2507
I1
sI2508
I1
sI2509
I1
sI2510
I1
sI2511
I1
sI2512
I2
sI2513
I2
sI2514
I1
sI2515
I1
sI2516
I1
sI2517
I2
sI2518
I1
sI2519
I1
sI2520
I1
sI2521
I3
sI2522
I1
sI2523
I1
sI2524
I3
sI2525
I1
sI2526
I1
sI2527
I1
sI2528
I1
sI2529
I1
sI2530
I1
sI2531
I1
sI2532
I1
sI2533
I1
sI2534
I4
sI2535
I1
sI2536
I2
sI2537
I1
sI2538
I1
sI2539
I1
sI2540
I2
sI2541
I1
sI2542
I1
sI2543
I1
sI2544
I1
sI2545
I1
sI2546
I1
sI2547
I2
sI2548
I1
sI2549
I1
sI2550
I1
sI2551
I1
sI2552
I1
sI2553
I1
sI2554
I1
sI2555
I4
sI2556
I4
sI2557
I3
sI2558
I4
sI2559
I1
sI2560
I1
sI2561
I1
sI2562
I1
sI2563
I1
sI2564
I4
sI2565
I1
sI2566
I2
sI2567
I1
sI2568
I1
sI2569
I2
sI2570
I1
sI2571
I3
sI2572
I1
sI2573
I1
sI2574
I1
sI2575
I1
sI2576
I1
sI2577
I1
sI2578
I1
sI2579
I1
sI2580
I1
sI2581
I2
sI2582
I1
sI2583
I1
sI2584
I1
sI2585
I1
sI2586
I1
sI2587
I1
sI2588
I1
sI2589
I1
sI2590
I1
sI2591
I1
sI2592
I2
sI2593
I1
sI2594
I1
sI2595
I2
sI2596
I1
sI2597
I1
sI2598
I1
sI2599
I1
sI2600
I1
sI2601
I2
sI2602
I2
sI2603
I1
sI2604
I1
sI2605
I1
sI2606
I1
sI2607
I1
sI2608
I1
sI2609
I1
sI2610
I1
sI2611
I3
sI2612
I2
sI2613
I1
sI2614
I2
sI2615
I1
sI2616
I1
sI2617
I1
sI2618
I1
sI2619
I1
sI2620
I1
sI2621
I2
sI2622
I1
sI2623
I1
sI2624
I1
sI2625
I1
sI2626
I1
sI2627
I1
sI2628
I1
sI2629
I1
sI2630
I1
sI2631
I5
sI2632
I1
sI2633
I2
sI2634
I1
sI2635
I1
sI2636
I1
sI2637
I1
sI2638
I1
sI2639
I3
sI2640
I1
sI2641
I1
sI2642
I2
sI2643
I1
sI2644
I1
sI2645
I1
sI2646
I1
sI2647
I1
sI2648
I1
sI2649
I1
sI2650
I1
sI2651
I1
sI2652
I1
sI2653
I1
sI2654
I2
sI2655
I3
sI2656
I3
sI2657
I1
sI2658
I1
sI2659
I1
sI2660
I1
sI2661
I1
sI2662
I2
sI2663
I1
sI2664
I1
sI2665
I1
sI2666
I1
sI2667
I1
sI2668
I1
sI2669
I2
sI2670
I1
sI2671
I2
sI2672
I1
sI2673
I1
sI2674
I1
sI2675
I1
sI2676
I1
sI2677
I1
sI2678
I1
sI2679
I1
sI2680
I1
sI2681
I1
sI2682
I2
sI2683
I1
sI2684
I1
sI2685
I1
sI2686
I1
sI2687
I1
sI2688
I1
sI2689
I1
sI2690
I5
sI2691
I2
sI2692
I1
sI2693
I1
sI2694
I1
sI2695
I1
sI2696
I1
sI2697
I1
sI2698
I1
sI2699
I1
sI2700
I1
sI2701
I1
sI2702
I1
sI2703
I2
sI2704
I1
sI2705
I3
sI2706
I1
sI2707
I2
sI2708
I1
sI2709
I1
sI2710
I2
sI2711
I1
sI2712
I1
sI2713
I1
sI2714
I1
sI2715
I1
sI2716
I2
sI2717
I1
sI2718
I1
sI2719
I1
sI2720
I1
sI2721
I1
sI2722
I1
sI2723
I6
sI2724
I2
sI2725
I1
sI2726
I1
sI2727
I1
sI2728
I1
sI2729
I1
sI2730
I1
sI2731
I3
sI2732
I1
sI2733
I2
sI2734
I1
sI2735
I5
sI2736
I1
sI2737
I1
sI2738
I3
sI2739
I1
sI2740
I1
sI2741
I1
sI2742
I1
sI2743
I1
sI2744
I1
sI2745
I1
sI2746
I1
sI2747
I1
sI2748
I4
sI2749
I2
sI2750
I2
sI2751
I1
sI2752
I1
sI2753
I1
sI2754
I1
sI2755
I1
sI2756
I1
sI2757
I1
sI2758
I1
sI2759
I1
sI2760
I4
sI2761
I2
sI2762
I1
sI2763
I1
sI2764
I1
sI2765
I3
sI2766
I1
sI2767
I1
sI2768
I1
sI2769
I1
sI2770
I3
sI2771
I1
sI2772
I1
sI2773
I1
sI2774
I1
sI2775
I1
sI2776
I1
sI2777
I1
sI2778
I2
sI2779
I3
sI2780
I3
sI2781
I3
sI2782
I2
sI2783
I1
sI2784
I1
sI2785
I1
sI2786
I1
sI2787
I1
sI2788
I1
sI2789
I1
sI2790
I3
sI2791
I2
sI2792
I1
sI2793
I1
sI2794
I1
sI2795
I1
sI2796
I1
sI2797
I1
sI2798
I1
sI2799
I1
sI2800
I2
sI2801
I1
sI2802
I2
sI2803
I1
sI2804
I1
sI2805
I1
sI2806
I1
sI2807
I1
sI2808
I2
sI2809
I1
sI2810
I2
sI2811
I1
sI2812
I1
sI2813
I1
sI2814
I1
sI2815
I1
sI2816
I1
sI2817
I1
sI2818
I1
sI2819
I1
sI2820
I3
sI2821
I1
sI2822
I5
sI2823
I1
sI2824
I2
sI2825
I1
sI2826
I1
sI2827
I2
sI2828
I1
sI2829
I3
sI2830
I3
sI2831
I2
sI2832
I1
sI2833
I1
sI2834
I2
sI2835
I1
sI2836
I1
sI2837
I1
sI2838
I1
sI2839
I3
sI2840
I3
sI2841
I1
sI2842
I1
sI2843
I1
sI2844
I3
sI2845
I2
sI2846
I1
sI2847
I1
sI2848
I1
sI2849
I1
sI2850
I1
sI2851
I2
sI2852
I1
sI2853
I1
sI2854
I4
sI2855
I1
sI2856
I2
sI2857
I1
sI2858
I2
sI2859
I1
sI2860
I1
sI2861
I1
sI2862
I3
sI2863
I1
sI2864
I1
sI2865
I1
sI2866
I3
sI2867
I1
sI2868
I1
sI2869
I1
sI2870
I1
sI2871
I1
sI2872
I1
sI2873
I1
sI2874
I1
sI2875
I1
sI2876
I1
sI2877
I1
sI2878
I1
sI2879
I1
sI2880
I1
sI2881
I2
sI2882
I2
sI2883
I1
sI2884
I2
sI2885
I1
sI2886
I1
sI2887
I1
sI2888
I1
sI2889
I1
sI2890
I2
sI2891
I1
sI2892
I1
sI2893
I1
sI2894
I1
sI2895
I1
sI2896
I1
sI2897
I1
sI2898
I3
sI2899
I2
sI2900
I1
sI2901
I1
sI2902
I1
sI2903
I2
sI2904
I1
sI2905
I1
sI2906
I1
sI2907
I1
sI2908
I1
sI2909
I1
sI2910
I2
sI2911
I1
sI2912
I1
sI2913
I1
sI2914
I3
sI2915
I3
sI2916
I2
sI2917
I1
sI2918
I2
sI2919
I1
sI2920
I1
sI2921
I1
sI2922
I1
sI2923
I4
sI2924
I1
sI2925
I1
sI2926
I1
sI2927
I2
sI2928
I1
sI2929
I1
sI2930
I3
sI2931
I3
sI2932
I1
sI2933
I3
sI2934
I1
sI2935
I1
sI2936
I1
sI2937
I3
sI2938
I2
sI2939
I1
sI2940
I2
sI2941
I2
sI2942
I1
sI2943
I4
sI2944
I1
sI2945
I1
sI2946
I1
sI2947
I1
sI2948
I1
sI2949
I3
sI2950
I2
sI2951
I2
sI2952
I1
sI2953
I1
sI2954
I2
sI2955
I3
sI2956
I1
sI2957
I1
sI2958
I2
sI2959
I2
sI2960
I2
sI2961
I1
sI2962
I2
sI2963
I1
sI2964
I1
sI2965
I1
sI2966
I1
sI2967
I1
sI2968
I1
sI2969
I1
sI2970
I1
sI2971
I1
sI2972
I1
sI2973
I1
sI2974
I1
sI2975
I1
sI2976
I1
sI2977
I1
sI2978
I1
sI2979
I1
sI2980
I1
sI2981
I2
sI2982
I1
sI2983
I1
sI2984
I4
sI2985
I1
sI2986
I1
sI2987
I1
sI2988
I3
sI2989
I1
sI2990
I1
sI2991
I2
sI2992
I1
sI2993
I1
sI2994
I2
sI2995
I1
sI2996
I2
sI2997
I1
sI2998
I1
sI2999
I1
sI3000
I2
sI3001
I1
sI3002
I1
sI3003
I3
sI3004
I1
sI3005
I1
sI3006
I1
sI3007
I2
sI3008
I1
sI3009
I1
sI3010
I1
sI3011
I1
sI3012
I1
sI3013
I2
sI3014
I2
sI3015
I2
sI3016
I1
sI3017
I1
sI3018
I1
sI3019
I1
sI3020
I1
sI3021
I1
sI3022
I3
sI3023
I1
sI3024
I1
sI3025
I1
sI3026
I1
sI3027
I1
sI3028
I1
sI3029
I2
sI3030
I1
sI3031
I1
sI3032
I1
sI3033
I1
sI3034
I1
sI3035
I1
sI3036
I2
sI3037
I1
sI3038
I1
sI3039
I1
sI3040
I1
sI3041
I1
sI3042
I1
sI3043
I1
sI3044
I3
sI3045
I1
sI3046
I1
sI3047
I1
sI3048
I1
sI3049
I1
sI3050
I1
sI3051
I1
sI3052
I1
sI3053
I1
sI3054
I2
sI3055
I1
sI3056
I1
sI3057
I1
sI3058
I1
sI3059
I1
sI3060
I1
sI3061
I1
sI3062
I1
sI3063
I2
sI3064
I2
sI3065
I2
sI3066
I2
sI3067
I1
sI3068
I1
sI3069
I1
sI3070
I1
sI3071
I3
sI3072
I2
sI3073
I1
sI3074
I2
sI3075
I1
sI3076
I1
sI3077
I1
sI3078
I1
sI3079
I2
sI3080
I1
sI3081
I1
sI3082
I1
sI3083
I1
sI3084
I1
sI3085
I1
sI3086
I1
sI3087
I1
sI3088
I1
sI3089
I1
sI3090
I3
sI3091
I1
sI3092
I1
sI3093
I1
sI3094
I2
sI3095
I1
sI3096
I1
sI3097
I1
sI3098
I1
sI3099
I1
sI3100
I1
sI3101
I1
sI3102
I1
sI3103
I1
sI3104
I1
sI3105
I2
sI3106
I1
sI3107
I2
sI3108
I1
sI3109
I1
sI3110
I1
sI3111
I1
sI3112
I1
sI3113
I1
sI3114
I2
sI3115
I1
sI3116
I1
sI3117
I1
sI3118
I1
sI3119
I1
sI3120
I1
sI3121
I3
sI3122
I1
sI3123
I1
sI3124
I1
sI3125
I1
sI3126
I1
sI3127
I1
sI3128
I1
sI3129
I1
sI3130
I1
sI3131
I1
sI3132
I1
sI3133
I1
sI3134
I1
sI3135
I1
sI3136
I1
sI3137
I1
sI3138
I1
sI3139
I2
sI3140
I1
sI3141
I1
sI3142
I1
sI3143
I1
sI3144
I2
sI3145
I2
sI3146
I1
sI3147
I1
sI3148
I3
sI3149
I1
sI3150
I1
sI3151
I1
sI3152
I2
sI3153
I1
sI3154
I1
sI3155
I1
sI3156
I2
sI3157
I1
sI3158
I1
sI3159
I2
sI3160
I2
sI3161
I1
sI3162
I1
sI3163
I1
sI3164
I1
sI3165
I2
sI3166
I1
sI3167
I1
sI3168
I1
sI3169
I1
sI3170
I1
sI3171
I1
sI3172
I1
sI3173
I1
sI3174
I1
sI3175
I1
sI3176
I1
sI3177
I1
sI3178
I1
sI3179
I1
sI3180
I1
sI3181
I1
sI3182
I2
sI3183
I1
sI3184
I1
sI3185
I1
sI3186
I1
sI3187
I1
sI3188
I1
sI3189
I1
sI3190
I1
sI3191
I1
sI3192
I1
sI3193
I1
sI3194
I1
sI3195
I1
sI3196
I1
sI3197
I1
sI3198
I1
sI3199
I2
sI3200
I1
sI3201
I1
sI3202
I1
sI3203
I1
sI3204
I1
sI3205
I1
sI3206
I1
sI3207
I1
sI3208
I1
sI3209
I1
sI3210
I1
sI3211
I1
sI3212
I1
sI3213
I1
sI3214
I1
sI3215
I1
sI3216
I1
sI3217
I1
sI3218
I1
sI3219
I1
sI3220
I2
sI3221
I1
sI3222
I1
sI3223
I1
sI3224
I1
sI3225
I1
sI3226
I1
sI3227
I2
sI3228
I1
sI3229
I1
sI3230
I1
sI3231
I1
sI3232
I1
sI3233
I1
sI3234
I2
sI3235
I1
sI3236
I1
sI3237
I1
sI3238
I1
sI3239
I1
sI3240
I1
sI3241
I2
sI3242
I1
sI3243
I1
sI3244
I1
sI3245
I1
sI3246
I1
sI3247
I1
sI3248
I1
sI3249
I1
sI3250
I1
sI3251
I1
sI3252
I1
sI3253
I1
sI3254
I1
sI3255
I1
sI3256
I1
sI3257
I1
sI3258
I1
sI3259
I1
sI3260
I1
sI3261
I1
sI3262
I1
sI3263
I1
sI3264
I1
sI3265
I2
sI3266
I1
sI3267
I1
sI3268
I1
sI3269
I1
sI3270
I1
sI3271
I1
sI3272
I3
sI3273
I2
sI3274
I1
sI3275
I1
sI3276
I1
sI3277
I1
sI3278
I1
sI3279
I1
sI3280
I1
sI3281
I1
sI3282
I1
sI3283
I1
sI3284
I1
sI3285
I1
sI3286
I1
sI3287
I1
sI3288
I1
sI3289
I3
sI3290
I2
sI3291
I1
sI3292
I2
sI3293
I2
sI3294
I1
sI3295
I1
sI3296
I1
sI3297
I1
sI3298
I1
sI3299
I1
sI3300
I3
sI3301
I1
sI3302
I1
sI3303
I3
sI3304
I1
sI3305
I2
sI3306
I1
sI3307
I1
sI3308
I2
sI3309
I2
sI3310
I2
sI3311
I1
sI3312
I1
sI3313
I1
sI3314
I1
sI3315
I1
sI3316
I1
sI3317
I1
sI3318
I1
sI3319
I2
sI3320
I1
sI3321
I1
sI3322
I3
sI3323
I1
sI3324
I1
sI3325
I1
sI3326
I1
sI3327
I1
sI3328
I3
sI3329
I2
sI3330
I1
sI3331
I1
sI3332
I1
sI3333
I1
sI3334
I1
sI3335
I2
sI3336
I1
sI3337
I1
sI3338
I1
sI3339
I1
sI3340
I1
sI3341
I1
sI3342
I3
sI3343
I1
sI3344
I1
sI3345
I1
sI3346
I2
sI3347
I1
sI3348
I1
sI3349
I1
sI3350
I1
sI3351
I1
sI3352
I1
sI3353
I1
sI3354
I2
sI3355
I2
sI3356
I2
sI3357
I2
sI3358
I2
sI3359
I2
sI3360
I2
sI3361
I2
sI3362
I2
sI3363
I2
sI3364
I2
sI3365
I1
sI3366
I2
sI3367
I2
sI3368
I2
sI3369
I2
sI3370
I2
sI3371
I2
sI3372
I2
sI3373
I2
sI3374
I2
sI3375
I4
sI3376
I2
sI3377
I2
sI3378
I2
sI3379
I2
sI3380
I3
sI3381
I2
sI3382
I2
sI3383
I3
sI3384
I2
sI3385
I2
sI3386
I2
sI3387
I2
sI3388
I1
sI3389
I1
sI3390
I1
sI3391
I2
sI3392
I1
sI3393
I1
sI3394
I3
sI3395
I1
sI3396
I1
sI3397
I1
sI3398
I1
sI3399
I1
sI3400
I1
sI3401
I1
sI3402
I1
sI3403
I2
sI3404
I1
sI3405
I2
sI3406
I2
sI3407
I1
sI3408
I1
sI3409
I1
sI3410
I1
sI3411
I1
sI3412
I1
sI3413
I3
sI3414
I1
sI3415
I1
sI3416
I1
sI3417
I1
sI3418
I1
sI3419
I1
sI3420
I1
sI3421
I1
sI3422
I1
sI3423
I1
sI3424
I1
sI3425
I1
sI3426
I1
sI3427
I1
sI3428
I2
sI3429
I2
sI3430
I1
sI3431
I1
sI3432
I2
sI3433
I1
sI3434
I1
sI3435
I3
sI3436
I1
sI3437
I1
sI3438
I2
sI3439
I2
sI3440
I1
sI3441
I1
sI3442
I1
sI3443
I1
sI3444
I2
sI3445
I1
sI3446
I1
sI3447
I1
sI3448
I1
sI3449
I1
sI3450
I1
sI3451
I2
sI3452
I1
sI3453
I1
sI3454
I1
sI3455
I1
sI3456
I2
sI3457
I1
sI3458
I1
sI3459
I1
sI3460
I1
sI3461
I1
sI3462
I1
sI3463
I1
sI3464
I1
sI3465
I2
sI3466
I1
sI3467
I1
sI3468
I1
sI3469
I1
sI3470
I2
sI3471
I1
sI3472
I1
sI3473
I1
sI3474
I2
sI3475
I1
sI3476
I1
sI3477
I1
sI3478
I1
sI3479
I1
sI3480
I3
sI3481
I1
sI3482
I1
sI3483
I2
sI3484
I1
sI3485
I1
sI3486
I1
sI3487
I1
sI3488
I1
sI3489
I1
sI3490
I2
sI3491
I1
sI3492
I1
sI3493
I1
sI3494
I1
sI3495
I1
sI3496
I1
sI3497
I1
sI3498
I2
sI3499
I1
sI3500
I1
sI3501
I1
sI3502
I1
sI3503
I1
sI3504
I1
sI3505
I1
sI3506
I1
sI3507
I1
sI3508
I1
sI3509
I1
sI3510
I1
sI3511
I1
sI3512
I1
sI3513
I1
sI3514
I1
sI3515
I1
sI3516
I1
sI3517
I1
sI3518
I1
sI3519
I1
sI3520
I1
sI3521
I1
sI3522
I1
sI3523
I1
sI3524
I2
sI3525
I1
sI3526
I1
sI3527
I1
sI3528
I1
sI3529
I1
sI3530
I1
sI3531
I1
sI3532
I1
sI3533
I1
sI3534
I1
sI3535
I1
sI3536
I1
sI3537
I1
sI3538
I1
sI3539
I1
sI3540
I1
sI3541
I1
sI3542
I1
sI3543
I1
sI3544
I1
sI3545
I1
sI3546
I1
sI3547
I1
sI3548
I1
sI3549
I1
sI3550
I1
sI3551
I1
sI3552
I1
sI3553
I1
sI3554
I1
sI3555
I1
sI3556
I1
sI3557
I1
sI3558
I1
sI3559
I1
sI3560
I1
sI3561
I1
sI3562
I2
sI3563
I1
sI3564
I1
sI3565
I1
sI3566
I1
sI3567
I2
sI3568
I1
sI3569
I1
sI3570
I1
sI3571
I1
sI3572
I1
sI3573
I1
sI3574
I1
sI3575
I1
sI3576
I1
sI3577
I1
sI3578
I1
sI3579
I1
sI3580
I1
sI3581
I1
sI3582
I1
sI3583
I1
sI3584
I1
sI3585
I1
sI3586
I1
sI3587
I1
sI3588
I2
sI3589
I1
sI3590
I1
sI3591
I1
sI3592
I1
sI3593
I1
sI3594
I1
sI3595
I1
sI3596
I1
sI3597
I1
sI3598
I1
sI3599
I1
sI3600
I1
sI3601
I1
sI3602
I1
sI3603
I1
sI3604
I1
sI3605
I1
sI3606
I1
sI3607
I1
sI3608
I1
sI3609
I1
sI3610
I1
sI3611
I1
sI3612
I1
sI3613
I1
sI3614
I1
sI3615
I1
sI3616
I1
sI3617
I1
sI3618
I1
sI3619
I1
sI3620
I1
sI3621
I1
sI3622
I1
sI3623
I1
sI3624
I1
sI3625
I1
sI3626
I1
sI3627
I1
sI3628
I1
sI3629
I1
sI3630
I2
sI3631
I1
sI3632
I1
sI3633
I1
sI3634
I1
sI3635
I1
sI3636
I1
sI3637
I1
sI3638
I1
sI3639
I1
sI3640
I2
sI3641
I1
sI3642
I1
sI3643
I1
sI3644
I1
sI3645
I1
sI3646
I1
sI3647
I1
sI3648
I1
sI3649
I3
sI3650
I1
sI3651
I2
sI3652
I1
sI3653
I1
sI3654
I1
sI3655
I1
sI3656
I1
sI3657
I1
sI3658
I1
sI3659
I1
sI3660
I1
sI3661
I1
sI3662
I1
sI3663
I1
sI3664
I1
sI3665
I1
sI3666
I1
sI3667
I2
sI3668
I1
sI3669
I1
sI3670
I1
sI3671
I1
sI3672
I1
sI3673
I1
sI3674
I2
sI3675
I1
sI3676
I1
sI3677
I1
sI3678
I1
sI3679
I1
sI3680
I2
sI3681
I1
sI3682
I1
sI3683
I1
sI3684
I1
sI3685
I1
sI3686
I1
sI3687
I1
sI3688
I1
sI3689
I1
sI3690
I1
sI3691
I1
sI3692
I1
sI3693
I2
sI3694
I1
sI3695
I1
sI3696
I1
sI3697
I2
sI3698
I1
sI3699
I1
sI3700
I1
sI3701
I1
sI3702
I1
sI3703
I1
sI3704
I1
sI3705
I1
sI3706
I1
sI3707
I1
sI3708
I1
sI3709
I1
sI3710
I1
sI3711
I1
sI3712
I1
sI3713
I1
sI3714
I1
sI3715
I1
sI3716
I1
sI3717
I1
sI3718
I1
sI3719
I1
sI3720
I1
sI3721
I1
sI3722
I1
sI3723
I1
sI3724
I1
sI3725
I1
sI3726
I1
sI3727
I1
sI3728
I1
sI3729
I1
sI3730
I1
sI3731
I1
sI3732
I1
sI3733
I1
sI3734
I1
sI3735
I1
sI3736
I1
sI3737
I1
sI3738
I1
sI3739
I1
sI3740
I1
sI3741
I1
sI3742
I1
sI3743
I1
sI3744
I1
sI3745
I1
sI3746
I1
sI3747
I1
sI3748
I1
sI3749
I1
sI3750
I1
sI3751
I1
sI3752
I1
sI3753
I1
sI3754
I1
sI3755
I1
sI3756
I1
sI3757
I1
sI3758
I1
sI3759
I2
sI3760
I1
sI3761
I1
sI3762
I1
sI3763
I1
sI3764
I1
sI3765
I1
sI3766
I1
sI3767
I1
sI3768
I1
sI3769
I1
sI3770
I1
sI3771
I1
sI3772
I1
sI3773
I1
sI3774
I1
sI3775
I1
sI3776
I1
sI3777
I1
sI3778
I1
sI3779
I1
sI3780
I1
sI3781
I2
sI3782
I1
sI3783
I1
sI3784
I1
sI3785
I1
sI3786
I2
sI3787
I1
sI3788
I1
sI3789
I1
sI3790
I1
sI3791
I1
sI3792
I1
sI3793
I1
sI3794
I1
sI3795
I1
sI3796
I1
sI3797
I1
sI3798
I1
sI3799
I1
sI3800
I1
sI3801
I1
sI3802
I1
sI3803
I1
sI3804
I1
sI3805
I1
sI3806
I1
sI3807
I1
sI3808
I1
sI3809
I1
sI3810
I1
sI3811
I1
sI3812
I1
sI3813
I1
sI3814
I1
sI3815
I1
sI3816
I1
sI3817
I1
sI3818
I1
sI3819
I1
sI3820
I1
sI3821
I2
sI3822
I1
sI3823
I1
sI3824
I1
sI3825
I1
sI3826
I1
sI3827
I1
sI3828
I1
sI3829
I1
sI3830
I1
sI3831
I2
sI3832
I1
sI3833
I1
sI3834
I1
sI3835
I1
sI3836
I1
sI3837
I1
sI3838
I1
sI3839
I1
sI3840
I1
sI3841
I1
sI3842
I1
sI3843
I1
sI3844
I1
sI3845
I1
sI3846
I1
sI3847
I1
sI3848
I1
sI3849
I1
sI3850
I1
sI3851
I1
sI3852
I2
sI3853
I1
sI3854
I1
sI3855
I1
sI3856
I1
sI3857
I1
sI3858
I1
sI3859
I1
sI3860
I1
sI3861
I1
sI3862
I1
sI3863
I1
sI3864
I1
sI3865
I1
sI3866
I1
sI3867
I1
sI3868
I1
sI3869
I1
sI3870
I1
sI3871
I1
sI3872
I1
sI3873
I1
sI3874
I1
sI3875
I1
sI3876
I1
sI3877
I1
sI3878
I1
sI3879
I1
sI3880
I1
sI3881
I1
sI3882
I1
sI3883
I1
sI3884
I1
sI3885
I1
sI3886
I1
sI3887
I1
sI3888
I1
sI3889
I1
sI3890
I1
sI3891
I1
sI3892
I1
sI3893
I1
sI3894
I1
sI3895
I1
sI3896
I1
sI3897
I1
sI3898
I1
sI3899
I1
sI3900
I1
sI3901
I1
sI3902
I1
sI3903
I1
sI3904
I1
sI3905
I1
ssS'num_nnz'
p3892
I12440
sS'id2token'
p3893
(dp3894
I0
V&
sI1
g1251
sI2
g999
sI3
g3352
sI4
g2059
sI5
g3536
sI6
g975
sI7
g899
sI8
g1203
sI9
g206
sI10
g624
sI11
g1578
sI12
g2359
sI13
g1179
sI14
g2822
sI15
g1693
sI16
g1536
sI17
g1632
sI18
g3800
sI19
g1493
sI20
g1390
sI21
g3736
sI22
g991
sI23
g1810
sI24
g1840
sI25
g623
sI26
g1768
sI27
g2959
sI28
g2561
sI29
g2486
sI30
g1367
sI31
g788
sI32
g1279
sI33
g3253
sI34
g2528
sI35
g3251
sI36
g1345
sI37
g3042
sI38
g1845
sI39
g1644
sI40
g2654
sI41
g1183
sI42
g3703
sI43
g893
sI44
g1643
sI45
g1278
sI46
g2646
sI47
g2547
sI48
g259
sI49
g512
sI50
g3729
sI51
g2321
sI52
g2584
sI53
g3614
sI54
g489
sI55
g3825
sI56
g78
sI57
g1265
sI58
g182
sI59
g644
sI60
g3005
sI61
g2079
sI62
g3678
sI63
g51
sI64
g2730
sI65
g3541
sI66
g3550
sI67
g1397
sI68
g3468
sI69
g3454
sI70
g2687
sI71
g2845
sI72
g3377
sI73
g2671
sI74
g3143
sI75
g1766
sI76
g1709
sI77
g2286
sI78
g3456
sI79
g3607
sI80
g3331
sI81
g1822
sI82
g100
sI83
g203
sI84
g3499
sI85
g2700
sI86
Vi
sI87
g1026
sI88
g696
sI89
g3809
sI90
g3020
sI91
g2577
sI92
g329
sI93
g715
sI94
g3866
sI95
g3346
sI96
g2377
sI97
g933
sI98
g2817
sI99
g110
sI100
g1410
sI101
g500
sI102
g1993
sI103
g3863
sI104
g3677
sI105
g1937
sI106
g1326
sI107
g2116
sI108
g1577
sI109
g3254
sI110
g2738
sI111
g1240
sI112
g424
sI113
g925
sI114
g997
sI115
g1763
sI116
g732
sI117
g2830
sI118
g3345
sI119
g3161
sI120
g1869
sI121
g30
sI122
g1685
sI123
g2301
sI124
g456
sI125
g1641
sI126
g69
sI127
g1254
sI128
g2439
sI129
g2666
sI130
g774
sI131
g2279
sI132
g1797
sI133
g281
sI134
g1478
sI135
g1805
sI136
g1138
sI137
g1413
sI138
g2276
sI139
g239
sI140
g2101
sI141
g106
sI142
g814
sI143
g748
sI144
g3744
sI145
g2422
sI146
g3103
sI147
g573
sI148
g2832
sI149
g752
sI150
g3209
sI151
g430
sI152
g2813
sI153
g2521
sI154
g3560
sI155
g1029
sI156
Vs
sI157
g1649
sI158
g1034
sI159
g2513
sI160
g1214
sI161
g2353
sI162
g1932
sI163
g1381
sI164
g3705
sI165
g3530
sI166
g3449
sI167
g3409
sI168
g1039
sI169
g2864
sI170
g11
sI171
g3196
sI172
g2760
sI173
g3109
sI174
g3599
sI175
g2100
sI176
g1224
sI177
g2117
sI178
g1368
sI179
g1185
sI180
Vt
sI181
g2788
sI182
g304
sI183
g3247
sI184
g268
sI185
g1826
sI186
g280
sI187
g1337
sI188
g3091
sI189
g2197
sI190
g961
sI191
g392
sI192
g2408
sI193
g285
sI194
g150
sI195
g219
sI196
g3355
sI197
g2256
sI198
g2664
sI199
g2530
sI200
g883
sI201
g2014
sI202
g931
sI203
g3358
sI204
g2390
sI205
g2818
sI206
g1896
sI207
g139
sI208
g216
sI209
g2748
sI210
g1899
sI211
g1930
sI212
g1566
sI213
g3100
sI214
g1419
sI215
g319
sI216
g1777
sI217
g570
sI218
g1042
sI219
g2583
sI220
g1037
sI221
g1594
sI222
g504
sI223
g3014
sI224
g2801
sI225
g2251
sI226
g1177
sI227
g3685
sI228
g2358
sI229
Vo
sI230
g3264
sI231
g2028
sI232
g3064
sI233
g1457
sI234
g719
sI235
g2214
sI236
g521
sI237
g3553
sI238
g2477
sI239
g699
sI240
g3310
sI241
g3745
sI242
g1600
sI243
g3751
sI244
g829
sI245
g372
sI246
g1049
sI247
g1991
sI248
g2542
sI249
g1475
sI250
g2581
sI251
g2401
sI252
g1140
sI253
g3589
sI254
g1127
sI255
g3357
sI256
g1406
sI257
g3467
sI258
g3836
sI259
g1016
sI260
g2913
sI261
g1876
sI262
g3147
sI263
g1664
sI264
g1662
sI265
g222
sI266
g77
sI267
g1198
sI268
g3261
sI269
g237
sI270
g2565
sI271
g2471
sI272
g186
sI273
g3249
sI274
g3234
sI275
g1194
sI276
g3686
sI277
g70
sI278
g978
sI279
g1310
sI280
g2091
sI281
g2414
sI282
g3839
sI283
g908
sI284
g1420
sI285
g2678
sI286
g3265
sI287
g2290
sI288
g3273
sI289
g316
sI290
g224
sI291
g2040
sI292
g571
sI293
g574
sI294
g2479
sI295
g3281
sI296
g1209
sI297
g2673
sI298
g1621
sI299
g688
sI300
g1673
sI301
g1976
sI302
g2065
sI303
g1510
sI304
g1123
sI305
g343
sI306
g3365
sI307
g173
sI308
g657
sI309
V-
sI310
g1998
sI311
g825
sI312
g1900
sI313
g3344
sI314
g736
sI315
g735
sI316
g1697
sI317
g2498
sI318
g1065
sI319
g1322
sI320
g3243
sI321
g2771
sI322
g851
sI323
g3145
sI324
g2051
sI325
g2397
sI326
g2232
sI327
g2302
sI328
g3361
sI329
g998
sI330
g2676
sI331
g1404
sI332
g1363
sI333
g1134
sI334
g3046
sI335
g2821
sI336
g3502
sI337
g1823
sI338
g2060
sI339
g1727
sI340
g3773
sI341
g2872
sI342
g2071
sI343
g2869
sI344
g3108
sI345
g3089
sI346
g791
sI347
g3724
sI348
g711
sI349
g1483
sI350
Vb
sI351
g3403
sI352
g1612
sI353
g3075
sI354
g637
sI355
g248
sI356
g3311
sI357
g3226
sI358
g552
sI359
g258
sI360
g1025
sI361
g3008
sI362
g2081
sI363
g2551
sI364
g2719
sI365
g966
sI366
g3593
sI367
g2974
sI368
g3525
sI369
g3402
sI370
g1705
sI371
g1321
sI372
g1307
sI373
g1833
sI374
g1070
sI375
g118
sI376
g1670
sI377
g3174
sI378
g2428
sI379
g2739
sI380
g660
sI381
g271
sI382
g1553
sI383
g2496
sI384
g3240
sI385
g1682
sI386
g901
sI387
g1528
sI388
g2682
sI389
g3812
sI390
g968
sI391
g177
sI392
g572
sI393
g746
sI394
g3200
sI395
g1193
sI396
g2922
sI397
g132
sI398
g1220
sI399
g2236
sI400
g2538
sI401
g826
sI402
g2082
sI403
g2512
sI404
Vd
sI405
g972
sI406
g1187
sI407
g3504
sI408
g3187
sI409
g2378
sI410
g2018
sI411
g3547
sI412
g2893
sI413
g2921
sI414
g1226
sI415
g2008
sI416
g790
sI417
g1866
sI418
g2373
sI419
g64
sI420
g3332
sI421
g2013
sI422
g2683
sI423
g3101
sI424
g2541
sI425
g3205
sI426
g1979
sI427
g464
sI428
g306
sI429
g863
sI430
g1264
sI431
Ve
sI432
g291
sI433
g213
sI434
g1732
sI435
g266
sI436
g772
sI437
g1276
sI438
g3136
sI439
g2185
sI440
g1460
sI441
g2601
sI442
g1271
sI443
g3317
sI444
g194
sI445
g2487
sI446
g1219
sI447
g17
sI448
g2751
sI449
g3515
sI450
g2725
sI451
g2263
sI452
g1657
sI453
g44
sI454
g2247
sI455
g827
sI456
g2765
sI457
g1712
sI458
g2524
sI459
g692
sI460
g2858
sI461
g757
sI462
g1434
sI463
g415
sI464
g955
sI465
g1560
sI466
g363
sI467
g3060
sI468
g527
sI469
g1651
sI470
g1661
sI471
g233
sI472
g3133
sI473
g3676
sI474
g645
sI475
g976
sI476
g891
sI477
g2500
sI478
g2838
sI479
g1961
sI480
g15
sI481
g2032
sI482
g1389
sI483
g2599
sI484
g2593
sI485
g1486
sI486
g3605
sI487
g3755
sI488
g335
sI489
g2943
sI490
g2140
sI491
g1637
sI492
g364
sI493
g1893
sI494
g3178
sI495
g1227
sI496
g766
sI497
g888
sI498
g368
sI499
g2090
sI500
g2190
sI501
g2735
sI502
g2952
sI503
g3106
sI504
g2485
sI505
g162
sI506
g2109
sI507
g2038
sI508
g3464
sI509
g226
sI510
g3796
sI511
g2255
sI512
g1411
sI513
g113
sI514
g3128
sI515
g502
sI516
g1910
sI517
g220
sI518
g2954
sI519
g3850
sI520
g2851
sI521
g2705
sI522
g2137
sI523
g804
sI524
g622
sI525
g1771
sI526
g2716
sI527
g902
sI528
g3120
sI529
g3474
sI530
g3595
sI531
g1229
sI532
g1779
sI533
g2333
sI534
g1920
sI535
g354
sI536
g2944
sI537
g3497
sI538
g3252
sI539
g2107
sI540
g2366
sI541
g1474
sI542
g2892
sI543
g2535
sI544
g3404
sI545
g2102
sI546
g214
sI547
g312
sI548
g3025
sI549
g1442
sI550
g2336
sI551
g103
sI552
g3016
sI553
g1715
sI554
g458
sI555
g3768
sI556
g1174
sI557
g3082
sI558
g2575
sI559
g2849
sI560
g1597
sI561
g2656
sI562
g1357
sI563
g559
sI564
g1834
sI565
g3653
sI566
Vm
sI567
g202
sI568
g3811
sI569
g700
sI570
g3034
sI571
g3049
sI572
g1626
sI573
g2067
sI574
g3343
sI575
g3232
sI576
g1196
sI577
g167
sI578
g2905
sI579
g2516
sI580
g1110
sI581
g351
sI582
g869
sI583
g2216
sI584
g421
sI585
g1015
sI586
g2539
sI587
g859
sI588
g592
sI589
g944
sI590
g129
sI591
g1559
sI592
g46
sI593
g169
sI594
g785
sI595
g3044
sI596
g641
sI597
g2980
sI598
g166
sI599
g181
sI600
g1261
sI601
g2061
sI602
g1191
sI603
g674
sI604
g2138
sI605
g247
sI606
g3626
sI607
g176
sI608
g87
sI609
g807
sI610
g317
sI611
g927
sI612
g1524
sI613
g1429
sI614
g2244
sI615
g1256
sI616
g451
sI617
g3015
sI618
g1160
sI619
g3076
sI620
g3624
sI621
g238
sI622
g1795
sI623
g2928
sI624
g234
sI625
g2681
sI626
g362
sI627
g1928
sI628
g3017
sI629
g3215
sI630
g3219
sI631
g1750
sI632
g1534
sI633
g1731
sI634
g1798
sI635
g2434
sI636
g2274
sI637
g3598
sI638
g2006
sI639
g3630
sI640
g3163
sI641
g1157
sI642
g2590
sI643
g3472
sI644
g2446
sI645
g3129
sI646
g1607
sI647
g2119
sI648
g1617
sI649
g1333
sI650
g2417
sI651
g3393
sI652
g2156
sI653
g1170
sI654
g1802
sI655
g2569
sI656
g1237
sI657
g1902
sI658
g783
sI659
g707
sI660
g2916
sI661
g3180
sI662
g1038
sI663
g1103
sI664
g3555
sI665
g3561
sI666
g1019
sI667
g615
sI668
g308
sI669
g3802
sI670
g848
sI671
g2313
sI672
g486
sI673
g3828
sI674
g2903
sI675
g2789
sI676
g3208
sI677
g1593
sI678
g2865
sI679
g403
sI680
g549
sI681
g2734
sI682
g2123
sI683
g3095
sI684
g842
sI685
g3544
sI686
g1598
sI687
g2975
sI688
g2762
sI689
g127
sI690
g3275
sI691
g2058
sI692
g2293
sI693
g2694
sI694
g2977
sI695
g2205
sI696
g2142
sI697
g320
sI698
g1730
sI699
g324
sI700
g2634
sI701
g2636
sI702
g2670
sI703
g3834
sI704
g3821
sI705
g3199
sI706
g2164
sI707
g3625
sI708
g3842
sI709
g518
sI710
g3007
sI711
g1207
sI712
g3271
sI713
g1152
sI714
g1387
sI715
g2918
sI716
g2273
sI717
g2957
sI718
g3320
sI719
g1877
sI720
g2937
sI721
g905
sI722
g996
sI723
g172
sI724
g1995
sI725
g137
sI726
g1400
sI727
g3111
sI728
g1402
sI729
g3875
sI730
g402
sI731
g338
sI732
g153
sI733
g1296
sI734
g2505
sI735
g1498
sI736
g2690
sI737
g2127
sI738
g1058
sI739
g2799
sI740
g922
sI741
g2726
sI742
g94
sI743
g3299
sI744
g854
sI745
g3102
sI746
g491
sI747
g2219
sI748
g1292
sI749
g803
sI750
g1654
sI751
g1287
sI752
g1831
sI753
g2827
sI754
g731
sI755
g2910
sI756
g881
sI757
g1906
sI758
g111
sI759
g3448
sI760
g2873
sI761
g3528
sI762
g3687
sI763
g117
sI764
g2698
sI765
g1502
sI766
g655
sI767
g1426
sI768
g2999
sI769
g566
sI770
g1969
sI771
g1417
sI772
g2086
sI773
g423
sI774
g667
sI775
g34
sI776
g151
sI777
g544
sI778
g3144
sI779
g1380
sI780
g3284
sI781
g269
sI782
g175
sI783
g1331
sI784
g1710
sI785
g1385
sI786
g1616
sI787
g450
sI788
g726
sI789
g636
sI790
g686
sI791
g2492
sI792
g191
sI793
g959
sI794
g3764
sI795
g382
sI796
g2595
sI797
g1153
sI798
g995
sI799
g3537
sI800
g754
sI801
g2976
sI802
g1956
sI803
g1021
sI804
g820
sI805
g862
sI806
g601
sI807
g2604
sI808
g1062
sI809
g904
sI810
g2854
sI811
g2848
sI812
g2855
sI813
g3052
sI814
g1086
sI815
g952
sI816
g1343
sI817
g1837
sI818
g3455
sI819
g2647
sI820
g3301
sI821
g1558
sI822
g3004
sI823
g190
sI824
g579
sI825
g3628
sI826
g2384
sI827
g1563
sI828
g1508
sI829
g3348
sI830
g1114
sI831
g3170
sI832
g1680
sI833
g170
sI834
g3435
sI835
g1099
sI836
g3698
sI837
g1739
sI838
g1166
sI839
g949
sI840
g257
sI841
g3479
sI842
g1283
sI843
g1501
sI844
g1818
sI845
g1344
sI846
g168
sI847
g322
sI848
g1394
sI849
g1111
sI850
g2795
sI851
g183
sI852
g739
sI853
g2078
sI854
g328
sI855
g2502
sI856
g3723
sI857
g2230
sI858
g39
sI859
g3441
sI860
g3296
sI861
g74
sI862
g777
sI863
g1285
sI864
g755
sI865
g1919
sI866
g2951
sI867
g2507
sI868
g2021
sI869
g2010
sI870
g293
sI871
g2310
sI872
g2945
sI873
g192
sI874
g2699
sI875
g2383
sI876
g610
sI877
g565
sI878
g1748
sI879
g3391
sI880
g3753
sI881
g3759
sI882
g1349
sI883
g3048
sI884
g2457
sI885
g3231
sI886
g2158
sI887
g1236
sI888
g1431
sI889
g2430
sI890
g1168
sI891
g2298
sI892
g3857
sI893
g3659
sI894
g2970
sI895
g1269
sI896
g986
sI897
g1439
sI898
g917
sI899
g2053
sI900
g2800
sI901
g1094
sI902
g2659
sI903
g1443
sI904
g3606
sI905
g3789
sI906
g3312
sI907
g1675
sI908
g2026
sI909
g1023
sI910
g3434
sI911
g3140
sI912
g3098
sI913
g2220
sI914
g690
sI915
g1258
sI916
g2318
sI917
g1608
sI918
g1035
sI919
g1109
sI920
g2617
sI921
g3591
sI922
g3708
sI923
g366
sI924
g302
sI925
g1249
sI926
g2289
sI927
g2570
sI928
g2450
sI929
g3282
sI930
g508
sI931
g1133
sI932
g2741
sI933
g2356
sI934
g2711
sI935
g3660
sI936
g2574
sI937
g1204
sI938
g2474
sI939
g877
sI940
g581
sI941
g1305
sI942
g2495
sI943
g2763
sI944
g2250
sI945
g2175
sI946
V/
sI947
g2836
sI948
g576
sI949
g2797
sI950
g3647
sI951
g679
sI952
g3189
sI953
g2890
sI954
g789
sI955
g2608
sI956
g3822
sI957
g3858
sI958
g838
sI959
Vc
sI960
g1568
sI961
g3509
sI962
g1722
sI963
g1872
sI964
g3084
sI965
g1949
sI966
g3522
sI967
g935
sI968
g3772
sI969
g1699
sI970
g2572
sI971
g599
sI972
g318
sI973
g3534
sI974
g1620
sI975
g2483
sI976
g3485
sI977
g408
sI978
g538
sI979
g1339
sI980
g2260
sI981
g2964
sI982
g1895
sI983
g2404
sI984
g1141
sI985
g2241
sI986
g3381
sI987
g1970
sI988
g974
sI989
g836
sI990
g1935
sI991
g3022
sI992
g2275
sI993
g3354
sI994
g3610
sI995
g1373
sI996
g828
sI997
g663
sI998
g96
sI999
g1780
sI1000
g90
sI1001
g3024
sI1002
g1263
sI1003
g1542
sI1004
g3667
sI1005
g2553
sI1006
g2334
sI1007
g3009
sI1008
g2233
sI1009
g2846
sI1010
g1106
sI1011
g3418
sI1012
g242
sI1013
g2257
sI1014
g1246
sI1015
g467
sI1016
g2312
sI1017
g3747
sI1018
g381
sI1019
g2968
sI1020
g1959
sI1021
g725
sI1022
g1317
sI1023
g2341
sI1024
g1230
sI1025
g1132
sI1026
g2317
sI1027
g1926
sI1028
g2226
sI1029
g2606
sI1030
g1882
sI1031
g3369
sI1032
g1144
sI1033
g3157
sI1034
g145
sI1035
g730
sI1036
g1922
sI1037
g1100
sI1038
g1334
sI1039
g2808
sI1040
g2264
sI1041
g1665
sI1042
g2343
sI1043
g297
sI1044
g2442
sI1045
g3383
sI1046
g376
sI1047
g2449
sI1048
g52
sI1049
g2834
sI1050
g3615
sI1051
g1690
sI1052
g876
sI1053
g2499
sI1054
g1963
sI1055
g3720
sI1056
g131
sI1057
g199
sI1058
g2860
sI1059
g608
sI1060
g2480
sI1061
g3627
sI1062
g1527
sI1063
g2803
sI1064
g1063
sI1065
g650
sI1066
g1659
sI1067
g264
sI1068
g3156
sI1069
g1384
sI1070
g3353
sI1071
g2372
sI1072
g1338
sI1073
g3490
sI1074
g1803
sI1075
g3119
sI1076
g1120
sI1077
g1222
sI1078
g3437
sI1079
g1082
sI1080
g1694
sI1081
g1618
sI1082
g2804
sI1083
g2300
sI1084
g910
sI1085
g2829
sI1086
g2947
sI1087
g1931
sI1088
g2212
sI1089
g1631
sI1090
g2775
sI1091
g3380
sI1092
g1749
sI1093
g830
sI1094
g2508
sI1095
g1650
sI1096
g2679
sI1097
g3781
sI1098
g3513
sI1099
g1061
sI1100
g2440
sI1101
g2388
sI1102
g923
sI1103
g741
sI1104
g1182
sI1105
g958
sI1106
g2409
sI1107
g3221
sI1108
g1301
sI1109
g2199
sI1110
g936
sI1111
g212
sI1112
g3816
sI1113
g1303
sI1114
g1158
sI1115
g796
sI1116
g1645
sI1117
g3585
sI1118
g3126
sI1119
g3788
sI1120
g1642
sI1121
g3662
sI1122
g3211
sI1123
g2953
sI1124
g1903
sI1125
g116
sI1126
g3336
sI1127
g2931
sI1128
g2746
sI1129
g770
sI1130
g1205
sI1131
g1582
sI1132
g397
sI1133
g520
sI1134
g2135
sI1135
g3612
sI1136
g3323
sI1137
g850
sI1138
g231
sI1139
g1121
sI1140
g126
sI1141
g3063
sI1142
g3036
sI1143
g963
sI1144
g3191
sI1145
g3290
sI1146
g3556
sI1147
g2221
sI1148
g2908
sI1149
g2285
sI1150
Vg
sI1151
g3652
sI1152
g1257
sI1153
g722
sI1154
g890
sI1155
g2195
sI1156
g1202
sI1157
g847
sI1158
g3709
sI1159
g3830
sI1160
g31
sI1161
g1540
sI1162
g2793
sI1163
g2381
sI1164
g2196
sI1165
g3071
sI1166
g1552
sI1167
g2473
sI1168
g1104
sI1169
g2527
sI1170
g3080
sI1171
g1764
sI1172
g2580
sI1173
g3713
sI1174
g101
sI1175
g2645
sI1176
g310
sI1177
g2332
sI1178
g459
sI1179
g122
sI1180
g2950
sI1181
g1448
sI1182
g3112
sI1183
g1996
sI1184
g513
sI1185
g1825
sI1186
g553
sI1187
g440
sI1188
g3531
sI1189
g2702
sI1190
g2034
sI1191
g428
sI1192
g2657
sI1193
g1260
sI1194
g3065
sI1195
g1472
sI1196
g1867
sI1197
g1481
sI1198
g3546
sI1199
g1785
sI1200
g3539
sI1201
g1557
sI1202
g3526
sI1203
g3194
sI1204
g1102
sI1205
g2206
sI1206
g3087
sI1207
g1377
sI1208
g3870
sI1209
g3414
sI1210
g3137
sI1211
g2055
sI1212
g2072
sI1213
g1059
sI1214
g798
sI1215
g221
sI1216
g965
sI1217
g3432
sI1218
g2475
sI1219
g2618
sI1220
g2361
sI1221
g2392
sI1222
g713
sI1223
g1135
sI1224
g880
sI1225
g1758
sI1226
g1565
sI1227
g1784
sI1228
g437
sI1229
g2747
sI1230
g2029
sI1231
g2579
sI1232
g2288
sI1233
g3798
sI1234
g419
sI1235
g1024
sI1236
g1892
sI1237
g315
sI1238
g1602
sI1239
g1841
sI1240
g994
sI1241
g535
sI1242
g3255
sI1243
g1946
sI1244
g1610
sI1245
g2563
sI1246
g993
sI1247
g1721
sI1248
g2000
sI1249
g668
sI1250
g2225
sI1251
g3572
sI1252
g3223
sI1253
g1057
sI1254
g1479
sI1255
g3808
sI1256
g793
sI1257
g68
sI1258
g3160
sI1259
g588
sI1260
g375
sI1261
g2489
sI1262
g533
sI1263
g2696
sI1264
g2092
sI1265
g3438
sI1266
g2399
sI1267
g1773
sI1268
g189
sI1269
g3035
sI1270
g2635
sI1271
g1689
sI1272
g3700
sI1273
g83
sI1274
g9
sI1275
g296
sI1276
g832
sI1277
g3424
sI1278
g2722
sI1279
g584
sI1280
g2436
sI1281
g2756
sI1282
g3856
sI1283
g2355
sI1284
g586
sI1285
g2033
sI1286
g2767
sI1287
g2407
sI1288
g1150
sI1289
g2054
sI1290
g1533
sI1291
g2080
sI1292
g3844
sI1293
g197
sI1294
g1471
sI1295
g1297
sI1296
g433
sI1297
g1299
sI1298
g3711
sI1299
g3421
sI1300
g2715
sI1301
g2112
sI1302
g729
sI1303
g1548
sI1304
g2878
sI1305
g3127
sI1306
g3218
sI1307
g3229
sI1308
g1828
sI1309
g3645
sI1310
g1362
sI1311
g843
sI1312
g3066
sI1313
g1112
sI1314
g1646
sI1315
g3542
sI1316
g896
sI1317
g540
sI1318
g2476
sI1319
g1564
sI1320
g1742
sI1321
g2089
sI1322
g2143
sI1323
g1151
sI1324
g3697
sI1325
g3567
sI1326
g3475
sI1327
g1865
sI1328
g3436
sI1329
g3116
sI1330
g2328
sI1331
g152
sI1332
g3754
sI1333
g3806
sI1334
g2621
sI1335
g2469
sI1336
g2023
sI1337
g1392
sI1338
g1904
sI1339
g3767
sI1340
g3588
sI1341
g63
sI1342
g3155
sI1343
g2412
sI1344
g2674
sI1345
g3613
sI1346
g2616
sI1347
g1244
sI1348
g3695
sI1349
g666
sI1350
g1195
sI1351
g1674
sI1352
g1846
sI1353
g1917
sI1354
g1239
sI1355
V]
sI1356
g86
sI1357
g913
sI1358
g209
sI1359
g1988
sI1360
g472
sI1361
g1814
sI1362
g410
sI1363
g1539
sI1364
g105
sI1365
g3752
sI1366
g2210
sI1367
g3535
sI1368
g3661
sI1369
g1950
sI1370
g3382
sI1371
g2385
sI1372
g178
sI1373
g2697
sI1374
g2405
sI1375
g3748
sI1376
g2839
sI1377
g1551
sI1378
g1108
sI1379
g2169
sI1380
g665
sI1381
g575
sI1382
g1726
sI1383
g2228
sI1384
g2721
sI1385
g1836
sI1386
g3731
sI1387
g2809
sI1388
g2902
sI1389
g159
sI1390
g3879
sI1391
g643
sI1392
g635
sI1393
g2847
sI1394
g1425
sI1395
g2295
sI1396
g2262
sI1397
g2113
sI1398
g1789
sI1399
g1480
sI1400
g1468
sI1401
g1071
sI1402
g156
sI1403
g2941
sI1404
g146
sI1405
g1130
sI1406
g567
sI1407
g2969
sI1408
g988
sI1409
g1423
sI1410
g441
sI1411
g3397
sI1412
g509
sI1413
g3123
sI1414
g1873
sI1415
g3038
sI1416
g522
sI1417
g3696
sI1418
g1569
sI1419
g1595
sI1420
g2074
sI1421
g3134
sI1422
g706
sI1423
g1315
sI1424
g1984
sI1425
g2814
sI1426
g435
sI1427
g3244
sI1428
g65
sI1429
g1137
sI1430
g2322
sI1431
g3459
sI1432
g2106
sI1433
g670
sI1434
g2308
sI1435
g448
sI1436
g2967
sI1437
g1300
sI1438
g647
sI1439
g3175
sI1440
g2015
sI1441
g1054
sI1442
g2526
sI1443
g3085
sI1444
g2266
sI1445
g3399
sI1446
g2772
sI1447
g1055
sI1448
g2871
sI1449
g3010
sI1450
g3363
sI1451
g3827
sI1452
g3737
sI1453
g3758
sI1454
g548
sI1455
g1325
sI1456
g3853
sI1457
g2367
sI1458
g2192
sI1459
g1020
sI1460
g2879
sI1461
g2177
sI1462
g1656
sI1463
g1272
sI1464
g1080
sI1465
g2956
sI1466
g1987
sI1467
g2784
sI1468
g834
sI1469
g2648
sI1470
g1014
sI1471
g714
sI1472
g3300
sI1473
g1048
sI1474
g2075
sI1475
g926
sI1476
g1630
sI1477
g915
sI1478
g1282
sI1479
g2452
sI1480
g2938
sI1481
g3622
sI1482
g2613
sI1483
g2566
sI1484
g2750
sI1485
g617
sI1486
g1107
sI1487
g591
sI1488
g551
sI1489
g2925
sI1490
g3478
sI1491
g1887
sI1492
g2453
sI1493
g251
sI1494
g3453
sI1495
g1547
sI1496
g2591
sI1497
g1605
sI1498
g2841
sI1499
g3235
sI1500
g3848
sI1501
g2182
sI1502
g1280
sI1503
g1393
sI1504
g1941
sI1505
g2720
sI1506
g2491
sI1507
g1799
sI1508
g2997
sI1509
g3632
sI1510
g1414
sI1511
g284
sI1512
g691
sI1513
g992
sI1514
g1466
sI1515
g2833
sI1516
g2919
sI1517
g3640
sI1518
g97
sI1519
g195
sI1520
g3419
sI1521
g3427
sI1522
g2933
sI1523
g2097
sI1524
g3451
sI1525
g478
sI1526
g2791
sI1527
g3641
sI1528
g2912
sI1529
g1319
sI1530
g469
sI1531
g2874
sI1532
g1590
sI1533
g1790
sI1534
g1341
sI1535
g2586
sI1536
g1992
sI1537
g1288
sI1538
g1440
sI1539
g642
sI1540
g3152
sI1541
g236
sI1542
g3507
sI1543
g2868
sI1544
g1250
sI1545
g3763
sI1546
g3756
sI1547
g2050
sI1548
g2852
sI1549
g989
sI1550
g1623
sI1551
g3013
sI1552
g2095
sI1553
g211
sI1554
g977
sI1555
g2619
sI1556
g484
sI1557
g3431
sI1558
g1835
sI1559
g889
sI1560
g916
sI1561
g1142
sI1562
g2844
sI1563
g3037
sI1564
g2248
sI1565
g1351
sI1566
g2766
sI1567
g2217
sI1568
g42
sI1569
g2380
sI1570
g2039
sI1571
g1890
sI1572
g434
sI1573
g141
sI1574
g1884
sI1575
g3795
sI1576
g1358
sI1577
g2899
sI1578
g275
sI1579
g3580
sI1580
g3059
sI1581
g2896
sI1582
g1452
sI1583
g3749
sI1584
g265
sI1585
g1006
sI1586
g2472
sI1587
g2981
sI1588
g3506
sI1589
g2345
sI1590
g2045
sI1591
g1943
sI1592
g2840
sI1593
g3186
sI1594
g235
sI1595
g2958
sI1596
g2339
sI1597
g740
sI1598
g218
sI1599
g2445
sI1600
g3517
sI1601
g768
sI1602
g3869
sI1603
g3476
sI1604
g2649
sI1605
g1017
sI1606
g800
sI1607
g2009
sI1608
g1087
sI1609
g370
sI1610
g3250
sI1611
g3829
sI1612
g1161
sI1613
g2337
sI1614
g1216
sI1615
g1311
sI1616
g3573
sI1617
g1778
sI1618
g3002
sI1619
g3272
sI1620
g1342
sI1621
g3362
sI1622
g3877
sI1623
g3769
sI1624
g473
sI1625
g2887
sI1626
g2533
sI1627
g3501
sI1628
g683
sI1629
g2035
sI1630
g2222
sI1631
g585
sI1632
g1450
sI1633
g681
sI1634
g3505
sI1635
g1723
sI1636
g389
sI1637
g290
sI1638
g82
sI1639
g3718
sI1640
g3375
sI1641
g2870
sI1642
g2316
sI1643
g2348
sI1644
g620
sI1645
g2926
sI1646
g2488
sI1647
g1761
sI1648
g2172
sI1649
g3471
sI1650
g1781
sI1651
g1124
sI1652
g2668
sI1653
g934
sI1654
g399
sI1655
g1679
sI1656
g2787
sI1657
g556
sI1658
g895
sI1659
g837
sI1660
g138
sI1661
g1105
sI1662
g3236
sI1663
g2110
sI1664
g2019
sI1665
g425
sI1666
g1072
sI1667
g2305
sI1668
g2132
sI1669
g3637
sI1670
g2387
sI1671
g747
sI1672
g390
sI1673
g1746
sI1674
g1213
sI1675
g3634
sI1676
g1853
sI1677
g3702
sI1678
g2173
sI1679
g1683
sI1680
g765
sI1681
g2443
sI1682
g3067
sI1683
g292
sI1684
g2806
sI1685
g503
sI1686
g409
sI1687
g3608
sI1688
g507
sI1689
g1077
sI1690
g2326
sI1691
g1306
sI1692
g246
sI1693
g3316
sI1694
g2129
sI1695
g2338
sI1696
g534
sI1697
g2792
sI1698
g2204
sI1699
g155
sI1700
g3195
sI1701
g1422
sI1702
g3400
sI1703
g2213
sI1704
g3510
sI1705
g3477
sI1706
g3173
sI1707
g2518
sI1708
g147
sI1709
g3629
sI1710
g388
sI1711
g3047
sI1712
g1703
sI1713
g3785
sI1714
g1842
sI1715
g33
sI1716
g1774
sI1717
g2425
sI1718
g1033
sI1719
g1366
sI1720
g61
sI1721
g2815
sI1722
g3694
sI1723
g3303
sI1724
g3374
sI1725
g2695
sI1726
g1743
sI1727
g47
sI1728
g2224
sI1729
g2382
sI1730
g724
sI1731
g760
sI1732
g1199
sI1733
g3855
sI1734
g3086
sI1735
g2882
sI1736
g702
sI1737
g287
sI1738
g1068
sI1739
g1874
sI1740
g3291
sI1741
g3335
sI1742
g879
sI1743
g3549
sI1744
g612
sI1745
g1824
sI1746
g2641
sI1747
g2596
sI1748
g1223
sI1749
g2121
sI1750
g1794
sI1751
g3636
sI1752
g260
sI1753
g1755
sI1754
g964
sI1755
g273
sI1756
g857
sI1757
g1441
sI1758
g1585
sI1759
g3566
sI1760
g1176
sI1761
g2571
sI1762
g2986
sI1763
g3179
sI1764
g3881
sI1765
g3616
sI1766
g3503
sI1767
g920
sI1768
g1084
sI1769
g3488
sI1770
g3766
sI1771
g73
sI1772
g431
sI1773
g2463
sI1774
g3423
sI1775
g619
sI1776
g380
sI1777
g204
sI1778
g2961
sI1779
g347
sI1780
g3040
sI1781
g3846
sI1782
g3620
sI1783
g479
sI1784
g3413
sI1785
g1531
sI1786
g3540
sI1787
g1093
sI1788
g1190
sI1789
g2379
sI1790
g2122
sI1791
g526
sI1792
g856
sI1793
g477
sI1794
g2884
sI1795
g383
sI1796
g1847
sI1797
g1592
sI1798
g108
sI1799
g1022
sI1800
g618
sI1801
g1517
sI1802
g2017
sI1803
g1754
sI1804
g480
sI1805
g1940
sI1806
g1711
sI1807
g3771
sI1808
g2174
sI1809
g2149
sI1810
g1933
sI1811
g3681
sI1812
g55
sI1813
g3813
sI1814
g3276
sI1815
g2625
sI1816
g3639
sI1817
g948
sI1818
g1463
sI1819
g1939
sI1820
g3570
sI1821
g2022
sI1822
g1957
sI1823
g104
sI1824
g3815
sI1825
g2218
sI1826
Vx
sI1827
g1350
sI1828
Vy
sI1829
g2227
sI1830
g1374
sI1831
g3003
sI1832
g1958
sI1833
g928
sI1834
g1069
sI1835
g3807
sI1836
g561
sI1837
g405
sI1838
g1916
sI1839
g2923
sI1840
g2235
sI1841
g123
sI1842
g1496
sI1843
g3823
sI1844
g2036
sI1845
g1523
sI1846
g3241
sI1847
g1570
sI1848
g1921
sI1849
g1738
sI1850
g3837
sI1851
g1347
sI1852
g3671
sI1853
g3267
sI1854
g279
sI1855
g1201
sI1856
g2562
sI1857
g1234
sI1858
g1294
sI1859
g2427
sI1860
g1891
sI1861
g3492
sI1862
g1156
sI1863
g2459
sI1864
g3824
sI1865
g3158
sI1866
g2215
sI1867
g267
sI1868
g2662
sI1869
g1462
sI1870
g1268
sI1871
g1407
sI1872
g3433
sI1873
g487
sI1874
g3151
sI1875
g3861
sI1876
g476
sI1877
g1907
sI1878
g3028
sI1879
g1767
sI1880
g541
sI1881
g3260
sI1882
g609
sI1883
g1047
sI1884
g449
sI1885
g979
sI1886
g1681
sI1887
g2429
sI1888
g1405
sI1889
g2347
sI1890
g2752
sI1891
g3387
sI1892
g1852
sI1893
g2665
sI1894
g3337
sI1895
g3514
sI1896
g1008
sI1897
g823
sI1898
g2281
sI1899
g813
sI1900
g49
sI1901
g400
sI1902
g2632
sI1903
g2291
sI1904
g761
sI1905
g1986
sI1906
g3602
sI1907
g2564
sI1908
g1375
sI1909
g984
sI1910
g1146
sI1911
g3481
sI1912
g2680
sI1913
g799
sI1914
g2349
sI1915
g819
sI1916
g1868
sI1917
g1293
sI1918
g1340
sI1919
g2927
sI1920
g241
sI1921
g3110
sI1922
g2278
sI1923
g1446
sI1924
g2162
sI1925
g3302
sI1926
g3675
sI1927
g3794
sI1928
g764
sI1929
g1888
sI1930
g1232
sI1931
g1629
sI1932
g2368
sI1933
g1816
sI1934
g956
sI1935
g1143
sI1936
g358
sI1937
g157
sI1938
g2120
sI1939
g1936
sI1940
g112
sI1941
g846
sI1942
g1356
sI1943
g1521
sI1944
g3717
sI1945
g3843
sI1946
g1125
sI1947
g3268
sI1948
g2411
sI1949
g2363
sI1950
g3292
sI1951
g3154
sI1952
g2211
sI1953
g1346
sI1954
g1854
sI1955
g3609
sI1956
g404
sI1957
g1619
sI1958
g3483
sI1959
g1136
sI1960
g3206
sI1961
g1091
sI1962
g3654
sI1963
g2327
sI1964
g3521
sI1965
g3740
sI1966
g2115
sI1967
g1274
sI1968
g2272
sI1969
g2044
sI1970
g932
sI1971
g805
sI1972
g3237
sI1973
g1487
sI1974
g1043
sI1975
g2159
sI1976
g2929
sI1977
g3682
sI1978
g3880
sI1979
g684
sI1980
g1530
sI1981
g616
sI1982
g24
sI1983
g2684
sI1984
g2757
sI1985
g874
sI1986
g3746
sI1987
g3088
sI1988
g3233
sI1989
g3141
sI1990
g3285
sI1991
g878
sI1992
g3649
sI1993
g1379
sI1994
g817
sI1995
g3689
sI1996
g3093
sI1997
g406
sI1998
g1515
sI1999
g981
sI2000
g1376
sI2001
g940
sI2002
g786
sI2003
g210
sI2004
g1815
sI2005
g250
sI2006
g1728
sI2007
g261
sI2008
g2243
sI2009
g2043
sI2010
g3257
sI2011
g3319
sI2012
g545
sI2013
g2622
sI2014
g348
sI2015
g88
sI2016
g3150
sI2017
g299
sI2018
g1212
sI2019
g3401
sI2020
g2897
sI2021
g336
sI2022
g3058
sI2023
g2011
sI2024
g3511
sI2025
g892
sI2026
g3584
sI2027
g3804
sI2028
g2626
sI2029
g3859
sI2030
g3122
sI2031
g3582
sI2032
g625
sI2033
g909
sI2034
g3532
sI2035
g1095
sI2036
g75
sI2037
g2989
sI2038
g1181
sI2039
g288
sI2040
g2420
sI2041
g3269
sI2042
g482
sI2043
g514
sI2044
g333
sI2045
g1028
sI2046
g144
sI2047
g3726
sI2048
g1512
sI2049
g3495
sI2050
g2525
sI2051
g763
sI2052
g3207
sI2053
g721
sI2054
g1401
sI2055
g2611
sI2056
g2413
sI2057
g606
sI2058
g2398
sI2059
g2245
sI2060
g1954
sI2061
g1927
sI2062
g1129
sI2063
g3797
sI2064
g1504
sI2065
g361
sI2066
g1905
sI2067
g2745
sI2068
g1092
sI2069
g2418
sI2070
g3070
sI2071
g341
sI2072
g1083
sI2073
g2510
sI2074
g649
sI2075
g1793
sI2076
g3581
sI2077
g900
sI2078
g345
sI2079
g1529
sI2080
g3776
sI2081
g2963
sI2082
g337
sI2083
g1399
sI2084
g1444
sI2085
g529
sI2086
g1535
sI2087
g3725
sI2088
g2630
sI2089
g1210
sI2090
g886
sI2091
g839
sI2092
g3761
sI2093
g2820
sI2094
g1163
sI2095
g80
sI2096
g887
sI2097
g3714
sI2098
g2068
sI2099
g3876
sI2100
g3658
sI2101
g898
sI2102
g3197
sI2103
g744
sI2104
g1281
sI2105
g2955
sI2106
g2545
sI2107
g1596
sI2108
g490
sI2109
g1119
sI2110
g1259
sI2111
g3465
sI2112
g1386
sI2113
g1634
sI2114
g1812
sI2115
g3643
sI2116
g3279
sI2117
g1499
sI2118
g3783
sI2119
g3787
sI2120
g45
sI2121
g3388
sI2122
g673
sI2123
g1354
sI2124
g3579
sI2125
g1066
sI2126
g2707
sI2127
g38
sI2128
g1477
sI2129
g1437
sI2130
g3442
sI2131
g2769
sI2132
g678
sI2133
g1856
sI2134
g387
sI2135
g835
sI2136
g1962
sI2137
g1870
sI2138
g1889
sI2139
g957
sI2140
g1284
sI2141
g438
sI2142
g102
sI2143
g1378
sI2144
g1418
sI2145
g3430
sI2146
g396
sI2147
g2282
sI2148
g2731
sI2149
g2811
sI2150
g3125
sI2151
g447
sI2152
g771
sI2153
g1759
sI2154
g2012
sI2155
g2482
sI2156
g3262
sI2157
g1241
sI2158
g3239
sI2159
g3704
sI2160
g1432
sI2161
g2481
sI2162
g1001
sI2163
g2573
sI2164
g852
sI2165
g1514
sI2166
g228
sI2167
g2704
sI2168
g346
sI2169
g2724
sI2170
g2396
sI2171
g22
sI2172
g3018
sI2173
g1580
sI2174
g3379
sI2175
g27
sI2176
g2962
sI2177
g2862
sI2178
g3621
sI2179
g1684
sI2180
g1238
sI2181
g25
sI2182
g3142
sI2183
g980
sI2184
g1663
sI2185
g3684
sI2186
g452
sI2187
g849
sI2188
g1879
sI2189
g93
sI2190
g705
sI2191
g3339
sI2192
g2160
sI2193
g1604
sI2194
g2523
sI2195
g517
sI2196
g3734
sI2197
g1724
sI2198
g1464
sI2199
g1883
sI2200
g2269
sI2201
g3587
sI2202
g1116
sI2203
g3496
sI2204
g180
sI2205
g2433
sI2206
g1638
sI2207
g2614
sI2208
g2709
sI2209
g1273
sI2210
g662
sI2211
g1736
sI2212
g2936
sI2213
g3512
sI2214
g121
sI2215
g2638
sI2216
g1782
sI2217
g71
sI2218
g946
sI2219
g1490
sI2220
g256
sI2221
g3295
sI2222
g3124
sI2223
g3001
sI2224
g1677
sI2225
g583
sI2226
g2259
sI2227
g453
sI2228
g550
sI2229
g1964
sI2230
g2180
sI2231
g3692
sI2232
g2465
sI2233
g3130
sI2234
g2073
sI2235
g2493
sI2236
g3329
sI2237
g2578
sI2238
g2462
sI2239
g1525
sI2240
g3366
sI2241
g201
sI2242
g1148
sI2243
g3131
sI2244
g1131
sI2245
g1945
sI2246
g3072
sI2247
g1169
sI2248
g3462
sI2249
g3322
sI2250
g605
sI2251
g339
sI2252
g2048
sI2253
g3019
sI2254
g303
sI2255
g1881
sI2256
g2768
sI2257
g652
sI2258
g2907
sI2259
g1708
sI2260
g1695
sI2261
g58
sI2262
g3719
sI2263
g697
sI2264
g1615
sI2265
g2653
sI2266
g1041
sI2267
g2842
sI2268
g2098
sI2269
g40
sI2270
g2292
sI2271
g1211
sI2272
g1329
sI2273
g2737
sI2274
g2785
sI2275
g1364
sI2276
g3559
sI2277
g2559
sI2278
g1461
sI2279
g1972
sI2280
g355
sI2281
g3347
sI2282
g1215
sI2283
g2514
sI2284
g3765
sI2285
g1977
sI2286
g1720
sI2287
g2540
sI2288
g682
sI2289
g2790
sI2290
g943
sI2291
g3359
sI2292
g967
sI2293
g229
sI2294
g107
sI2295
g1911
sI2296
g1115
sI2297
g2494
sI2298
g2088
sI2299
g2458
sI2300
g3500
sI2301
g3601
sI2302
g1769
sI2303
g629
sI2304
g2389
sI2305
g1262
sI2306
g3246
sI2307
g2242
sI2308
g3508
sI2309
g2146
sI2310
g60
sI2311
g2754
sI2312
g903
sI2313
g1886
sI2314
g3183
sI2315
g3340
sI2316
g2130
sI2317
g1857
sI2318
g1741
sI2319
g2467
sI2320
g3153
sI2321
g2335
sI2322
g1036
sI2323
g148
sI2324
g1427
sI2325
g119
sI2326
g1801
sI2327
g1519
sI2328
g547
sI2329
g613
sI2330
g2602
sI2331
g2231
sI2332
g501
sI2333
g1725
sI2334
g1412
sI2335
g882
sI2336
g1860
sI2337
g232
sI2338
g465
sI2339
g546
sI2340
g781
sI2341
g359
sI2342
g3466
sI2343
g2042
sI2344
g3277
sI2345
g3558
sI2346
g3603
sI2347
g2153
sI2348
g1045
sI2349
g3061
sI2350
g698
sI2351
g1573
sI2352
g262
sI2353
g3838
sI2354
g942
sI2355
g2831
sI2356
g604
sI2357
g2186
sI2358
g2995
sI2359
g3706
sI2360
g2419
sI2361
g1800
sI2362
g2960
sI2363
g3371
sI2364
g2891
sI2365
g3030
sI2366
g3482
sI2367
g954
sI2368
g3033
sI2369
g3715
sI2370
g1913
sI2371
g1772
sI2372
g2306
sI2373
g3139
sI2374
g1312
sI2375
g3410
sI2376
g125
sI2377
g3742
sI2378
g57
sI2379
g2254
sI2380
g455
sI2381
g1636
sI2382
g631
sI2383
g283
sI2384
g773
sI2385
g1556
sI2386
g3538
sI2387
g41
sI2388
g2904
sI2389
g171
sI2390
g3882
sI2391
g596
sI2392
g506
sI2393
g1098
sI2394
g161
sI2395
g3214
sI2396
g300
sI2397
g1383
sI2398
g1716
sI2399
g1290
sI2400
g377
sI2401
g2267
sI2402
g1627
sI2403
g327
sI2404
g3688
sI2405
g3817
sI2406
g3408
sI2407
g2126
sI2408
g3074
sI2409
g3527
sI2410
g432
sI2411
g115
sI2412
g1075
sI2413
g3201
sI2414
g1909
sI2415
g815
sI2416
g298
sI2417
g2594
sI2418
g109
sI2419
g1951
sI2420
g1085
sI2421
g2965
sI2422
g845
sI2423
g1819
sI2424
g2753
sI2425
g2888
sI2426
g3780
sI2427
g776
sI2428
g378
sI2429
g1751
sI2430
g2432
sI2431
g185
sI2432
g3216
sI2433
g54
sI2434
g568
sI2435
g1053
sI2436
g3330
sI2437
g92
sI2438
g321
sI2439
g414
sI2440
g2148
sI2441
g2531
sI2442
g2859
sI2443
g2168
sI2444
g198
sI2445
g1719
sI2446
g1861
sI2447
g2628
sI2448
g3313
sI2449
g626
sI2450
g2303
sI2451
g1513
sI2452
g37
sI2453
g470
sI2454
V%
sI2455
g3149
sI2456
V@
sI2457
g2128
sI2458
g1971
sI2459
g1004
sI2460
g1740
sI2461
g3171
sI2462
g3390
sI2463
g3774
sI2464
g2761
sI2465
g3576
sI2466
g810
sI2467
g1208
sI2468
g32
sI2469
g808
sI2470
g2063
sI2471
g3782
sI2472
g1544
sI2473
g2096
sI2474
g1267
sI2475
g2203
sI2476
g3386
sI2477
g2639
sI2478
g14
sI2479
g460
sI2480
g831
sI2481
g3665
sI2482
g1581
sI2483
g884
sI2484
g352
sI2485
g3854
sI2486
g1729
sI2487
g1027
sI2488
g3099
sI2489
g2718
sI2490
g1128
sI2491
g853
sI2492
g1277
sI2493
g1175
sI2494
g1421
sI2495
g3443
sI2496
g1880
sI2497
g1482
sI2498
g941
sI2499
g672
sI2500
g36
sI2501
g1696
sI2502
g16
sI2503
g120
sI2504
g43
sI2505
g2315
sI2506
g2592
sI2507
g3635
sI2508
g1783
sI2509
g66
sI2510
g3633
sI2511
g3278
sI2512
g1242
sI2513
g2253
sI2514
g3073
sI2515
g3569
sI2516
g3307
sI2517
g3039
sI2518
g3176
sI2519
g2660
sI2520
g505
sI2521
g1435
sI2522
g1714
sI2523
g3775
sI2524
g3674
sI2525
g3699
sI2526
g10
sI2527
Vk
sI2528
g3146
sI2529
g227
sI2530
g1189
sI2531
g3683
sI2532
g3168
sI2533
g1313
sI2534
g1295
sI2535
g468
sI2536
g2672
sI2537
g1415
sI2538
g2650
sI2539
g969
sI2540
g208
sI2541
g1178
sI2542
g98
sI2543
g3032
sI2544
g3342
sI2545
g427
sI2546
g2270
sI2547
g1756
sI2548
g3568
sI2549
g2677
sI2550
g1372
sI2551
g3428
sI2552
g2615
sI2553
g2776
sI2554
g554
sI2555
g3105
sI2556
g3814
sI2557
g769
sI2558
g2464
sI2559
g3283
sI2560
g2620
sI2561
g3012
sI2562
g2184
sI2563
g685
sI2564
Vr
sI2565
g2027
sI2566
g2007
sI2567
g3202
sI2568
g818
sI2569
g1192
sI2570
g3862
sI2571
g3650
sI2572
g987
sI2573
g528
sI2574
g1403
sI2575
g951
sI2576
g443
sI2577
g2515
sI2578
g2179
sI2579
g1912
sI2580
g1117
sI2581
g712
sI2582
g1454
sI2583
g1701
sI2584
g982
sI2585
g2170
sI2586
g2161
sI2587
g2612
sI2588
g708
sI2589
g3565
sI2590
g749
sI2591
g164
sI2592
g1200
sI2593
g1298
sI2594
g3878
sI2595
g349
sI2596
g3516
sI2597
g912
sI2598
g1587
sI2599
g1155
sI2600
g3227
sI2601
g3520
sI2602
g787
sI2603
g614
sI2604
g2837
sI2605
g2623
sI2606
g971
sI2607
g398
sI2608
g1820
sI2609
g393
sI2610
g1586
sI2611
g3668
sI2612
g3444
sI2613
g270
sI2614
g133
sI2615
g3079
sI2616
g1323
sI2617
g2145
sI2618
g2661
sI2619
g960
sI2620
g1898
sI2621
g3412
sI2622
g1396
sI2623
g1064
sI2624
g531
sI2625
g750
sI2626
g3840
sI2627
g1982
sI2628
g1765
sI2629
g3563
sI2630
g2778
sI2631
g2610
sI2632
g2881
sI2633
g2729
sI2634
g2114
sI2635
g782
sI2636
g3460
sI2637
g1733
sI2638
g1978
sI2639
g3728
sI2640
g140
sI2641
g3690
sI2642
g2853
sI2643
g2002
sI2644
g2652
sI2645
g1081
sI2646
g595
sI2647
g2166
sI2648
g1583
sI2649
g2742
sI2650
g439
sI2651
g59
sI2652
g2466
sI2653
g1118
sI2654
g938
sI2655
g1985
sI2656
g1485
sI2657
g3450
sI2658
g1844
sI2659
g1184
sI2660
g1611
sI2661
g350
sI2662
g1052
sI2663
g95
sI2664
g654
sI2665
g2643
sI2666
g26
sI2667
g2309
sI2668
g2764
sI2669
g3324
sI2670
g2552
sI2671
g2246
sI2672
g689
sI2673
g2691
sI2674
g897
sI2675
g2663
sI2676
g3596
sI2677
g1147
sI2678
Vn
sI2679
g255
sI2680
g806
sI2681
g812
sI2682
g2675
sI2683
g603
sI2684
g2780
sI2685
g875
sI2686
g728
sI2687
g1762
sI2688
g3293
sI2689
g2537
sI2690
g1518
sI2691
g1162
sI2692
g3258
sI2693
g1973
sI2694
g274
sI2695
g1965
sI2696
g3819
sI2697
g1522
sI2698
g2201
sI2699
g2105
sI2700
g2895
sI2701
g2261
sI2702
g947
sI2703
g3648
sI2704
g2894
sI2705
g1561
sI2706
g493
sI2707
g2732
sI2708
g1388
sI2709
g1473
sI2710
g3871
sI2711
Vh
sI2712
g1465
sI2713
g1700
sI2714
g911
sI2715
g207
sI2716
g3289
sI2717
g1808
sI2718
g2736
sI2719
g661
sI2720
g2320
sI2721
g1576
sI2722
g3887
sI2723
g240
sI2724
g3190
sI2725
g861
sI2726
g723
sI2727
g205
sI2728
g3138
sI2729
g263
sI2730
g632
sI2731
g3321
sI2732
g3738
sI2733
g921
sI2734
g1359
sI2735
g3670
sI2736
g3469
sI2737
g12
sI2738
g2534
sI2739
g2307
sI2740
g3031
sI2741
g2391
sI2742
g1918
sI2743
g2176
sI2744
g1942
sI2745
g76
sI2746
g2712
sI2747
g2478
sI2748
g945
sI2749
g2470
sI2750
g1791
sI2751
g1858
sI2752
g1878
sI2753
g1491
sI2754
g411
sI2755
g3426
sI2756
g2057
sI2757
g3732
sI2758
g3820
sI2759
g344
sI2760
g2468
sI2761
g2296
sI2762
g2311
sI2763
g3398
sI2764
g2743
sI2765
g2857
sI2766
g775
sI2767
g497
sI2768
g2365
sI2769
g677
sI2770
g742
sI2771
g2374
sI2772
g2342
sI2773
g3673
sI2774
g2183
sI2775
g3574
sI2776
g2609
sI2777
g797
sI2778
g2030
sI2779
g1980
sI2780
g1352
sI2781
g1438
sI2782
g2299
sI2783
g1894
sI2784
g2773
sI2785
g1678
sI2786
g286
sI2787
g1009
sI2788
g2655
sI2789
g3884
sI2790
g294
sI2791
g2154
sI2792
g2688
sI2793
g1572
sI2794
g422
sI2795
g29
sI2796
g1233
sI2797
g2988
sI2798
g865
sI2799
g937
sI2800
g2376
sI2801
g3204
sI2802
g1031
sI2803
g756
sI2804
g2194
sI2805
g1507
sI2806
g371
sI2807
g3328
sI2808
g2701
sI2809
g2134
sI2810
g253
sI2811
g3679
sI2812
g985
sI2813
g578
sI2814
g1915
sI2815
g483
sI2816
g2934
sI2817
g3666
sI2818
g3198
sI2819
g174
sI2820
g1584
sI2821
g1717
sI2822
g658
sI2823
g1316
sI2824
g2924
sI2825
g2991
sI2826
g970
sI2827
g225
sI2828
g3669
sI2829
g2875
sI2830
g3107
sI2831
g1076
sI2832
g2198
sI2833
g873
sI2834
g607
sI2835
g2755
sI2836
g2155
sI2837
g3818
sI2838
g2202
sI2839
g1575
sI2840
g2047
sI2841
g2984
sI2842
g1074
sI2843
g738
sI2844
g1221
sI2845
g3054
sI2846
g3167
sI2847
g3349
sI2848
g2331
sI2849
g2920
sI2850
g28
sI2851
g1154
sI2852
g693
sI2853
g2041
sI2854
g710
sI2855
g3288
sI2856
g3090
sI2857
g1488
sI2858
g885
sI2859
g840
sI2860
g252
sI2861
g511
sI2862
g3597
sI2863
g245
sI2864
g3327
sI2865
g1458
sI2866
Vw
sI2867
g3701
sI2868
g2049
sI2869
g307
sI2870
g179
sI2871
g3062
sI2872
g536
sI2873
g569
sI2874
g3712
sI2875
g593
sI2876
g919
sI2877
g671
sI2878
g2352
sI2879
g3793
sI2880
g2287
sI2881
g733
sI2882
g1089
sI2883
g1747
sI2884
g894
sI2885
g1369
sI2886
g230
sI2887
g1231
sI2888
g3849
sI2889
g1302
sI2890
g2783
sI2891
g717
sI2892
g2207
sI2893
g560
sI2894
g2548
sI2895
g3803
sI2896
g1839
sI2897
g99
sI2898
g1470
sI2899
g2271
sI2900
g1704
sI2901
g1248
sI2902
g2238
sI2903
g1974
sI2904
g3865
sI2905
g1056
sI2906
g1735
sI2907
g196
sI2908
g243
sI2909
g1938
sI2910
g3117
sI2911
g3461
sI2912
g1624
sI2913
g158
sI2914
g2150
sI2915
g85
sI2916
g289
sI2917
g2421
sI2918
g3225
sI2919
g3006
sI2920
g3600
sI2921
g2284
sI2922
g1459
sI2923
g3473
sI2924
g2200
sI2925
g2503
sI2926
g2087
sI2927
g3577
sI2928
g1827
sI2929
g1500
sI2930
g2939
sI2931
g1173
sI2932
g1506
sI2933
g530
sI2934
g1859
sI2935
g330
sI2936
g2549
sI2937
g1546
sI2938
g1505
sI2939
g2796
sI2940
g939
sI2941
g871
sI2942
g1752
sI2943
g811
sI2944
g2993
sI2945
g3026
sI2946
g2125
sI2947
g3440
sI2948
g1968
sI2949
g2972
sI2950
g3733
sI2951
g3011
sI2952
g1186
sI2953
g3298
sI2954
g2603
sI2955
g602
sI2956
g395
sI2957
g1484
sI2958
g13
sI2959
g3041
sI2960
g537
sI2961
g444
sI2962
g3396
sI2963
g2438
sI2964
g3770
sI2965
g2083
sI2966
g21
sI2967
g3308
sI2968
g646
sI2969
g3309
sI2970
g563
sI2971
g1489
sI2972
g457
sI2973
g1445
sI2974
g906
sI2975
g2900
sI2976
g1424
sI2977
g3494
sI2978
g1925
sI2979
g1934
sI2980
g1550
sI2981
g1309
sI2982
g3056
sI2983
g2108
sI2984
g1289
sI2985
g2781
sI2986
g1492
sI2987
g1923
sI2988
g2627
sI2989
g1676
sI2990
g200
sI2991
g2147
sI2992
g1526
sI2993
g2555
sI2994
g2966
sI2995
g734
sI2996
g401
sI2997
g2667
sI2998
g2727
sI2999
g1225
sI3000
g780
sI3001
g532
sI3002
g1788
sI3003
g3554
sI3004
g1532
sI3005
g3777
sI3006
g1159
sI3007
g1983
sI3008
g758
sI3009
g704
sI3010
g494
sI3011
g1545
sI3012
g1706
sI3013
g767
sI3014
g1050
sI3015
g687
sI3016
g3578
sI3017
g1967
sI3018
g1275
sI3019
g53
sI3020
g3373
sI3021
g2605
sI3022
g3518
sI3023
g2297
sI3024
g3852
sI3025
g510
sI3026
g870
sI3027
g3407
sI3028
g1981
sI3029
g762
sI3030
g142
sI3031
g709
sI3032
g3081
sI3033
g278
sI3034
g1718
sI3035
g3778
sI3036
g3220
sI3037
g2364
sI3038
g523
sI3039
g3743
sI3040
g3721
sI3041
g2558
sI3042
g353
sI3043
g1770
sI3044
g2587
sI3045
g737
sI3046
g2568
sI3047
g1145
sI3048
g272
sI3049
g1668
sI3050
g2992
sI3051
g3452
sI3052
g1330
sI3053
g2544
sI3054
g3826
sI3055
g2828
sI3056
g950
sI3057
g2240
sI3058
g3493
sI3059
g3165
sI3060
g1622
sI3061
g2529
sI3062
g1737
sI3063
g1640
sI3064
g3043
sI3065
g580
sI3066
g3739
sI3067
g1455
sI3068
g1543
sI3069
g2713
sI3070
g3571
sI3071
g3646
sI3072
g2877
sI3073
g634
sI3074
g628
sI3075
g1745
sI3076
g867
sI3077
g2208
sI3078
g2456
sI3079
g3274
sI3080
g276
sI3081
g416
sI3082
g1511
sI3083
g2509
sI3084
g1613
sI3085
g1989
sI3086
g3092
sI3087
g1660
sI3088
g2589
sI3089
g2774
sI3090
g3439
sI3091
g3888
sI3092
g3631
sI3093
g1849
sI3094
g1606
sI3095
g1447
sI3096
g1652
sI3097
g1821
sI3098
g1908
sI3099
g3470
sI3100
g3406
sI3101
g3425
sI3102
g633
sI3103
g391
sI3104
g703
sI3105
g314
sI3106
g3182
sI3107
g188
sI3108
g3315
sI3109
g3710
sI3110
g2779
sI3111
g2543
sI3112
g2001
sI3113
g638
sI3114
g2375
sI3115
g2066
sI3116
g407
sI3117
g2324
sI3118
g367
sI3119
g542
sI3120
g2915
sI3121
g2178
sI3122
g2344
sI3123
g62
sI3124
g2819
sI3125
g3096
sI3126
g3326
sI3127
g436
sI3128
g597
sI3129
g1948
sI3130
g3445
sI3131
g3045
sI3132
g3420
sI3133
g3623
sI3134
g3693
sI3135
g325
sI3136
g3415
sI3137
g3238
sI3138
g1416
sI3139
g2144
sI3140
g3851
sI3141
g481
sI3142
g384
sI3143
g475
sI3144
g3707
sI3145
g564
sI3146
g1817
sI3147
g3548
sI3148
g2104
sI3149
g3864
sI3150
g1671
sI3151
g515
sI3152
g3297
sI3153
g2644
sI3154
g3873
sI3155
g3656
sI3156
g1944
sI3157
g2714
sI3158
g1476
sI3159
g627
sI3160
g2843
sI3161
g539
sI3162
g1603
sI3163
g1206
sI3164
g2435
sI3165
g1332
sI3166
g1875
sI3167
g1639
sI3168
g524
sI3169
g1537
sI3170
g2576
sI3171
g2802
sI3172
g844
sI3173
g2139
sI3174
g2325
sI3175
g1096
sI3176
g2351
sI3177
g385
sI3178
g1667
sI3179
g833
sI3180
g3148
sI3181
g2141
sI3182
g3872
sI3183
g2973
sI3184
g3491
sI3185
g323
sI3186
g1453
sI3187
g3050
sI3188
g3213
sI3189
g2812
sI3190
g676
sI3191
g659
sI3192
g1692
sI3193
g3586
sI3194
g1914
sI3195
g2031
sI3196
g3790
sI3197
g3242
sI3198
g2239
sI3199
g417
sI3200
g2189
sI3201
g1999
sI3202
g2850
sI3203
g466
sI3204
g374
sI3205
g858
sI3206
g841
sI3207
g2020
sI3208
g1832
sI3209
g2415
sI3210
g1588
sI3211
g2883
sI3212
g2448
sI3213
g3318
sI3214
g3664
sI3215
g3642
sI3216
g2402
sI3217
g1757
sI3218
g369
sI3219
g3486
sI3220
g1591
sI3221
g3533
sI3222
g3885
sI3223
g2455
sI3224
g2816
sI3225
g2444
sI3226
g1314
sI3227
g577
sI3228
g640
sI3229
g2085
sI3230
g2323
sI3231
g2823
sI3232
g3051
sI3233
g2532
sI3234
g2187
sI3235
g2987
sI3236
g1335
sI3237
g3741
sI3238
g1139
sI3239
g1409
sI3240
g3611
sI3241
g2880
sI3242
g3446
sI3243
g664
sI3244
g2229
sI3245
g1520
sI3246
g1625
sI3247
g1811
sI3248
g1243
sI3249
g1495
sI3250
g1336
sI3251
g1975
sI3252
g3368
sI3253
g282
sI3254
g357
sI3255
g3405
sI3256
g3762
sI3257
g1838
sI3258
g600
sI3259
g2706
sI3260
g2451
sI3261
g277
sI3262
g1787
sI3263
g2283
sI3264
g1635
sI3265
g2982
sI3266
g3360
sI3267
g1655
sI3268
g1947
sI3269
g822
sI3270
g3655
sI3271
g2770
sI3272
g67
sI3273
g1601
sI3274
g48
sI3275
g1003
sI3276
g187
sI3277
g3132
sI3278
g3638
sI3279
g2898
sI3280
g1760
sI3281
g1304
sI3282
g2252
sI3283
g2357
sI3284
g3068
sI3285
g1456
sI3286
g3259
sI3287
g1497
sI3288
g445
sI3289
g3604
sI3290
g1792
sI3291
g2917
sI3292
g3691
sI3293
g1538
sI3294
g309
sI3295
g72
sI3296
g1101
sI3297
g792
sI3298
g1122
sI3299
g3224
sI3300
g3801
sI3301
g492
sI3302
g3583
sI3303
g1291
sI3304
g499
sI3305
g3835
sI3306
g3575
sI3307
g907
sI3308
g2703
sI3309
g2277
sI3310
g3831
sI3311
g249
sI3312
g1589
sI3313
g471
sI3314
g3524
sI3315
g929
sI3316
g1013
sI3317
g3422
sI3318
g3543
sI3319
g2990
sI3320
g2520
sI3321
g3356
sI3322
g2209
sI3323
g2304
sI3324
g412
sI3325
g3750
sI3326
g1365
sI3327
g2330
sI3328
g2319
sI3329
g1990
sI3330
g160
sI3331
g727
sI3332
g3841
sI3333
g3114
sI3334
g3118
sI3335
g3097
sI3336
g2588
sI3337
g1324
sI3338
g163
sI3339
g1669
sI3340
g1555
sI3341
g2686
sI3342
g1451
sI3343
g1929
sI3344
g2909
sI3345
g463
sI3346
g3644
sI3347
g2181
sI3348
g1960
sI3349
g2400
sI3350
g1408
sI3351
g743
sI3352
g1897
sI3353
g373
sI3354
g1030
sI3355
g2118
sI3356
g2004
sI3357
g1167
sI3358
g1648
sI3359
g3159
sI3360
g2084
sI3361
g1067
sI3362
g1012
sI3363
g81
sI3364
g3077
sI3365
g3487
sI3366
g114
sI3367
g3590
sI3368
g1172
sI3369
g2835
sI3370
g824
sI3371
g2410
sI3372
g3416
sI3373
g519
sI3374
g953
sI3375
g2223
sI3376
g2994
sI3377
g1628
sI3378
g1308
sI3379
g1658
sI3380
g394
sI3381
g2631
sI3382
g2744
sI3383
g2386
sI3384
g582
sI3385
g2585
sI3386
g2692
sI3387
g1433
sI3388
g3304
sI3389
g983
sI3390
g3832
sI3391
g2346
sI3392
g3557
sI3393
g495
sI3394
g3480
sI3395
g442
sI3396
g301
sI3397
g2983
sI3398
g2546
sI3399
g1672
sI3400
g3364
sI3401
g3376
sI3402
g2786
sI3403
g3053
sI3404
g716
sI3405
g962
sI3406
g1924
sI3407
g136
sI3408
g1753
sI3409
g2554
sI3410
g2076
sI3411
g1327
sI3412
g1245
sI3413
g3886
sI3414
g3395
sI3415
g802
sI3416
g1044
sI3417
g801
sI3418
g124
sI3419
g2886
sI3420
g1197
sI3421
g860
sI3422
g3263
sI3423
g2758
sI3424
g2403
sI3425
g3551
sI3426
g2901
sI3427
g2651
sI3428
g3370
sI3429
g2426
sI3430
g485
sI3431
g3564
sI3432
g990
sI3433
g2948
sI3434
g2258
sI3435
g594
sI3436
g2607
sI3437
g3083
sI3438
g2064
sI3439
g1171
sI3440
g2708
sI3441
g3113
sI3442
g2237
sI3443
g3248
sI3444
g3617
sI3445
Vl
sI3446
g184
sI3447
g784
sI3448
g795
sI3449
g598
sI3450
g215
sI3451
g3519
sI3452
g1391
sI3453
g1653
sI3454
g2932
sI3455
g590
sI3456
g2600
sI3457
g1255
sI3458
g3104
sI3459
g2504
sI3460
g3457
sI3461
g2423
sI3462
g557
sI3463
g3458
sI3464
g2749
sI3465
g2360
sI3466
g128
sI3467
g3172
sI3468
g165
sI3469
g1953
sI3470
g2025
sI3471
g3545
sI3472
g1554
sI3473
g461
sI3474
g429
sI3475
g3810
sI3476
g3757
sI3477
g1469
sI3478
g1804
sI3479
g2191
sI3480
g2151
sI3481
g1355
sI3482
g3760
sI3483
g2157
sI3484
g154
sI3485
g2733
sI3486
Vj
sI3487
g1165
sI3488
g3651
sI3489
g3164
sI3490
g1574
sI3491
g420
sI3492
g130
sI3493
g2689
sI3494
g1247
sI3495
g2996
sI3496
g1848
sI3497
g3367
sI3498
g360
sI3499
g2461
sI3500
g3341
sI3501
g718
sI3502
g2394
sI3503
g1286
sI3504
g217
sI3505
g2294
sI3506
g135
sI3507
g3294
sI3508
g2637
sI3509
g2003
sI3510
g326
sI3511
g2911
sI3512
g3799
sI3513
g1807
sI3514
g1571
sI3515
g1430
sI3516
g2424
sI3517
g3592
sI3518
g2861
sI3519
g1776
sI3520
g1997
sI3521
g3350
sI3522
g745
sI3523
g3847
sI3524
g2517
sI3525
g2099
sI3526
g18
sI3527
g2556
sI3528
g872
sI3529
g3256
sI3530
g3867
sI3531
g821
sI3532
g2111
sI3533
g1353
sI3534
g1955
sI3535
g1370
sI3536
g1217
sI3537
g3305
sI3538
g2717
sI3539
g3792
sI3540
g2536
sI3541
g1253
sI3542
g2906
sI3543
g2998
sI3544
g1371
sI3545
g1228
sI3546
g2794
sI3547
g866
sI3548
g778
sI3549
g1252
sI3550
g1843
sI3551
g2971
sI3552
g1088
sI3553
g386
sI3554
g2268
sI3555
g2136
sI3556
g2103
sI3557
g3657
sI3558
g3245
sI3559
g1901
sI3560
g3394
sI3561
g1562
sI3562
g2163
sI3563
g193
sI3564
g2777
sI3565
g2782
sI3566
g3094
sI3567
g1010
sI3568
g930
sI3569
g675
sI3570
g2329
sI3571
g2362
sI3572
g2685
sI3573
g3203
sI3574
g2866
sI3575
g1164
sI3576
g3845
sI3577
g1647
sI3578
g3000
sI3579
g1851
sI3580
g295
sI3581
g2930
sI3582
g2629
sI3583
g454
sI3584
g2165
sI3585
g2582
sI3586
g365
sI3587
g2167
sI3588
g1806
sI3589
g3619
sI3590
g2124
sI3591
g648
sI3592
g3314
sI3593
g89
sI3594
g2460
sI3595
g2314
sI3596
g79
sI3597
g418
sI3598
g1567
sI3599
g2805
sI3600
g914
sI3601
g516
sI3602
g3727
sI3603
g2728
sI3604
g1073
sI3605
g2658
sI3606
g2567
sI3607
g1863
sI3608
g3447
sI3609
g2519
sI3610
g2511
sI3611
g2914
sI3612
g1079
sI3613
g1382
sI3614
g680
sI3615
g701
sI3616
g3484
sI3617
g1328
sI3618
g1686
sI3619
g1862
sI3620
g3021
sI3621
g1467
sI3622
g1541
sI3623
g2867
sI3624
g924
sI3625
g587
sI3626
g2810
sI3627
g809
sI3628
g1994
sI3629
g2723
sI3630
g1320
sI3631
g2188
sI3632
g1002
sI3633
g3372
sI3634
g3333
sI3635
g2740
sI3636
g1180
sI3637
g462
sI3638
g558
sI3639
g143
sI3640
g50
sI3641
g2693
sI3642
g3270
sI3643
g2070
sI3644
g426
sI3645
g3489
sI3646
g1830
sI3647
g3115
sI3648
g2431
sI3649
g1744
sI3650
g1018
sI3651
g379
sI3652
g334
sI3653
g3523
sI3654
g864
sI3655
g1688
sI3656
g1809
sI3657
g496
sI3658
g3287
sI3659
g2710
sI3660
g2037
sI3661
g1509
sI3662
g2052
sI3663
g20
sI3664
g3210
sI3665
g311
sI3666
g3463
sI3667
g525
sI3668
g2016
sI3669
g816
sI3670
g1707
sI3671
g2393
sI3672
g1829
sI3673
g342
sI3674
g2441
sI3675
g3868
sI3676
g1713
sI3677
g1966
sI3678
g1633
sI3679
g1952
sI3680
g1360
sI3681
g2416
sI3682
g3874
sI3683
g3663
sI3684
g3029
sI3685
g3280
sI3686
g2942
sI3687
g2501
sI3688
g653
sI3689
g3889
sI3690
g3389
sI3691
g1864
sI3692
g1687
sI3693
g1614
sI3694
g1318
sI3695
g2522
sI3696
g2490
sI3697
g694
sI3698
g3078
sI3699
g1149
sI3700
g3121
sI3701
g2249
sI3702
g2640
sI3703
g1786
sI3704
g305
sI3705
g1691
sI3706
g3786
sI3707
g1436
sI3708
g2350
sI3709
g1060
sI3710
g3429
sI3711
g2133
sI3712
g3057
sI3713
g656
sI3714
g3228
sI3715
g1734
sI3716
g1032
sI3717
g2889
sI3718
g2824
sI3719
g2234
sI3720
g313
sI3721
g1011
sI3722
g2077
sI3723
g720
sI3724
g3055
sI3725
g3217
sI3726
g2354
sI3727
g1000
sI3728
g543
sI3729
g1428
sI3730
g3184
sI3731
g918
sI3732
g2005
sI3733
g2642
sI3734
g3735
sI3735
g3192
sI3736
g1348
sI3737
g474
sI3738
g2371
sI3739
g498
sI3740
g1449
sI3741
g695
sI3742
g3716
sI3743
g2046
sI3744
g2340
sI3745
g3193
sI3746
g2863
sI3747
g794
sI3748
g3185
sI3749
g1040
sI3750
g488
sI3751
g2550
sI3752
g2024
sI3753
g2506
sI3754
g3784
sI3755
g2069
sI3756
g2093
sI3757
g2946
sI3758
g1007
sI3759
g3166
sI3760
g254
sI3761
g3334
sI3762
g3392
sI3763
g2633
sI3764
g84
sI3765
g611
sI3766
g2094
sI3767
g2598
sI3768
g1046
sI3769
g2454
sI3770
g332
sI3771
g3212
sI3772
g3181
sI3773
g3562
sI3774
g3169
sI3775
g753
sI3776
g3162
sI3777
g2484
sI3778
g2131
sI3779
g446
sI3780
g2497
sI3781
g2798
sI3782
g3883
sI3783
g3860
sI3784
g2597
sI3785
g2949
sI3786
g3384
sI3787
g1218
sI3788
g1361
sI3789
g3378
sI3790
g1850
sI3791
g3779
sI3792
g2406
sI3793
g1813
sI3794
g2369
sI3795
g2062
sI3796
g2935
sI3797
g3266
sI3798
g3385
sI3799
g2856
sI3800
g3188
sI3801
g1885
sI3802
g1516
sI3803
g1855
sI3804
g3069
sI3805
g23
sI3806
g2395
sI3807
g1235
sI3808
g134
sI3809
g2560
sI3810
g1549
sI3811
g2807
sI3812
g1398
sI3813
g759
sI3814
g1698
sI3815
g1702
sI3816
g3135
sI3817
g651
sI3818
g3618
sI3819
g1090
sI3820
g1599
sI3821
g1775
sI3822
g3351
sI3823
g2624
sI3824
g356
sI3825
g149
sI3826
g855
sI3827
g2193
sI3828
g3805
sI3829
g3177
sI3830
g2940
sI3831
g3594
sI3832
g3286
sI3833
g3680
sI3834
g3833
sI3835
g2280
sI3836
g3722
sI3837
g3529
sI3838
g779
sI3839
g1609
sI3840
g2876
sI3841
g3417
sI3842
g413
sI3843
g2669
sI3844
g1266
sI3845
g630
sI3846
g3023
sI3847
g3552
sI3848
g1097
sI3849
g3306
sI3850
g1503
sI3851
g1113
sI3852
g3222
sI3853
g1126
sI3854
g2825
sI3855
g244
sI3856
g2437
sI3857
g3791
sI3858
g1051
sI3859
g2447
sI3860
g2265
sI3861
g2985
sI3862
g562
sI3863
g3338
sI3864
g555
sI3865
g3672
sI3866
g868
sI3867
g1579
sI3868
g2978
sI3869
g1395
sI3870
g331
sI3871
g2826
sI3872
g2056
sI3873
g3325
sI3874
g19
sI3875
g35
sI3876
g669
sI3877
g3027
sI3878
g1188
sI3879
g3230
sI3880
g91
sI3881
g639
sI3882
g1078
sI3883
g1871
sI3884
g589
sI3885
g3498
sI3886
g751
sI3887
g2171
sI3888
g973
sI3889
g1666
sI3890
g1270
sI3891
g2759
sI3892
g3411
sI3893
g56
sI3894
g3730
sI3895
g1796
sI3896
g223
sI3897
g2979
sI3898
g2370
sI3899
g621
sI3900
g2885
sI3901
g1494
sI3902
g1005
sI3903
g2557
sI3904
g2152
sI3905
g340
ssS'num_pos'
p3895
I25597
sb.